
/home/mark/Documents/Thesis/thesis/compiled/csv_parser:     file format elf64-x86-64


Disassembly of section .init:

0000000000002000 <_init>:
    2000:	f3 0f 1e fa          	endbr64 
    2004:	48 83 ec 08          	sub    $0x8,%rsp
    2008:	48 8b 05 d9 5f 00 00 	mov    0x5fd9(%rip),%rax 
    200f:	48 85 c0             	test   %rax,%rax
    2012:	74 02                	je     2016 <_init+0x16>
    2014:	ff d0                	call   *%rax
    2016:	48 83 c4 08          	add    $0x8,%rsp
    201a:	c3                   	ret    

Disassembly of section .plt:

0000000000002020 <_ZSt7getlineIcSt11char_traitsIcESaIcEERSt13basic_istreamIT_T0_ES7_RNSt7__cxx1112basic_stringIS4_S5_T1_EE@plt-0x10>:
    2020:	ff 35 e2 5f 00 00    	push   0x5fe2(%rip) 
    2026:	ff 25 e4 5f 00 00    	jmp    *0x5fe4(%rip) 
    202c:	0f 1f 40 00          	nopl   0x0(%rax)

0000000000002030 <_ZSt7getlineIcSt11char_traitsIcESaIcEERSt13basic_istreamIT_T0_ES7_RNSt7__cxx1112basic_stringIS4_S5_T1_EE@plt>:
    2030:	ff 25 e2 5f 00 00    	jmp    *0x5fe2(%rip) 
    2036:	68 00 00 00 00       	push   $0x0
    203b:	e9 e0 ff ff ff       	jmp    2020 <_init+0x20>

0000000000002040 <_ZNSt14basic_ifstreamIcSt11char_traitsIcEED1Ev@plt>:
    2040:	ff 25 da 5f 00 00    	jmp    *0x5fda(%rip) 
    2046:	68 01 00 00 00       	push   $0x1
    204b:	e9 d0 ff ff ff       	jmp    2020 <_init+0x20>

0000000000002050 <_ZSt9terminatev@plt>:
    2050:	ff 25 d2 5f 00 00    	jmp    *0x5fd2(%rip) 
    2056:	68 02 00 00 00       	push   $0x2
    205b:	e9 c0 ff ff ff       	jmp    2020 <_init+0x20>

0000000000002060 <_ZSt17__throw_bad_allocv@plt>:
    2060:	ff 25 ca 5f 00 00    	jmp    *0x5fca(%rip) 
    2066:	68 03 00 00 00       	push   $0x3
    206b:	e9 b0 ff ff ff       	jmp    2020 <_init+0x20>

0000000000002070 <__cxa_begin_catch@plt>:
    2070:	ff 25 c2 5f 00 00    	jmp    *0x5fc2(%rip) 
    2076:	68 04 00 00 00       	push   $0x4
    207b:	e9 a0 ff ff ff       	jmp    2020 <_init+0x20>

0000000000002080 <_ZNSt7__cxx1112basic_stringIcSt11char_traitsIcESaIcEEC1ERKS4_@plt>:
    2080:	ff 25 ba 5f 00 00    	jmp    *0x5fba(%rip) 
    2086:	68 05 00 00 00       	push   $0x5
    208b:	e9 90 ff ff ff       	jmp    2020 <_init+0x20>

0000000000002090 <_ZSt20__throw_length_errorPKc@plt>:
    2090:	ff 25 b2 5f 00 00    	jmp    *0x5fb2(%rip) 
    2096:	68 06 00 00 00       	push   $0x6
    209b:	e9 80 ff ff ff       	jmp    2020 <_init+0x20>

00000000000020a0 <_ZNSt7__cxx1112basic_stringIcSt11char_traitsIcESaIcEEC1EOS4_@plt>:
    20a0:	ff 25 aa 5f 00 00    	jmp    *0x5faa(%rip) 
    20a6:	68 07 00 00 00       	push   $0x7
    20ab:	e9 70 ff ff ff       	jmp    2020 <_init+0x20>

00000000000020b0 <_ZNSt7__cxx1112basic_stringIcSt11char_traitsIcESaIcEED1Ev@plt>:
    20b0:	ff 25 a2 5f 00 00    	jmp    *0x5fa2(%rip) 
    20b6:	68 08 00 00 00       	push   $0x8
    20bb:	e9 60 ff ff ff       	jmp    2020 <_init+0x20>

00000000000020c0 <_ZNSt7__cxx1118basic_stringstreamIcSt11char_traitsIcESaIcEED1Ev@plt>:
    20c0:	ff 25 9a 5f 00 00    	jmp    *0x5f9a(%rip) 
    20c6:	68 09 00 00 00       	push   $0x9
    20cb:	e9 50 ff ff ff       	jmp    2020 <_init+0x20>

00000000000020d0 <_ZSt28__throw_bad_array_new_lengthv@plt>:
    20d0:	ff 25 92 5f 00 00    	jmp    *0x5f92(%rip) 
    20d6:	68 0a 00 00 00       	push   $0xa
    20db:	e9 40 ff ff ff       	jmp    2020 <_init+0x20>

00000000000020e0 <__cxa_atexit@plt>:
    20e0:	ff 25 8a 5f 00 00    	jmp    *0x5f8a(%rip) 
    20e6:	68 0b 00 00 00       	push   $0xb
    20eb:	e9 30 ff ff ff       	jmp    2020 <_init+0x20>

00000000000020f0 <_ZStlsIcSt11char_traitsIcESaIcEERSt13basic_ostreamIT_T0_ES7_RKNSt7__cxx1112basic_stringIS4_S5_T1_EE@plt>:
    20f0:	ff 25 82 5f 00 00    	jmp    *0x5f82(%rip) 
    20f6:	68 0c 00 00 00       	push   $0xc
    20fb:	e9 20 ff ff ff       	jmp    2020 <_init+0x20>

0000000000002100 <_ZdlPv@plt>:
    2100:	ff 25 7a 5f 00 00    	jmp    *0x5f7a(%rip) 
    2106:	68 0d 00 00 00       	push   $0xd
    210b:	e9 10 ff ff ff       	jmp    2020 <_init+0x20>

0000000000002110 <_ZStlsISt11char_traitsIcEERSt13basic_ostreamIcT_ES5_PKc@plt>:
    2110:	ff 25 72 5f 00 00    	jmp    *0x5f72(%rip) 
    2116:	68 0e 00 00 00       	push   $0xe
    211b:	e9 00 ff ff ff       	jmp    2020 <_init+0x20>

0000000000002120 <_Znwm@plt>:
    2120:	ff 25 6a 5f 00 00    	jmp    *0x5f6a(%rip) 
    2126:	68 0f 00 00 00       	push   $0xf
    212b:	e9 f0 fe ff ff       	jmp    2020 <_init+0x20>

0000000000002130 <_ZNSolsEPFRSoS_E@plt>:
    2130:	ff 25 62 5f 00 00    	jmp    *0x5f62(%rip) 
    2136:	68 10 00 00 00       	push   $0x10
    213b:	e9 e0 fe ff ff       	jmp    2020 <_init+0x20>

0000000000002140 <_ZNKSt9basic_iosIcSt11char_traitsIcEEcvbEv@plt>:
    2140:	ff 25 5a 5f 00 00    	jmp    *0x5f5a(%rip) 
    2146:	68 11 00 00 00       	push   $0x11
    214b:	e9 d0 fe ff ff       	jmp    2020 <_init+0x20>

0000000000002150 <_ZNSt7__cxx1112basic_stringIcSt11char_traitsIcESaIcEEC1Ev@plt>:
    2150:	ff 25 52 5f 00 00    	jmp    *0x5f52(%rip) 
    2156:	68 12 00 00 00       	push   $0x12
    215b:	e9 c0 fe ff ff       	jmp    2020 <_init+0x20>

0000000000002160 <__cxa_rethrow@plt>:
    2160:	ff 25 4a 5f 00 00    	jmp    *0x5f4a(%rip) 
    2166:	68 13 00 00 00       	push   $0x13
    216b:	e9 b0 fe ff ff       	jmp    2020 <_init+0x20>

0000000000002170 <_ZNSt8ios_base4InitC1Ev@plt>:
    2170:	ff 25 42 5f 00 00    	jmp    *0x5f42(%rip) 
    2176:	68 14 00 00 00       	push   $0x14
    217b:	e9 a0 fe ff ff       	jmp    2020 <_init+0x20>

0000000000002180 <_ZNSt7__cxx1118basic_stringstreamIcSt11char_traitsIcESaIcEEC1ERKNS_12basic_stringIcS2_S3_EESt13_Ios_Openmode@plt>:
    2180:	ff 25 3a 5f 00 00    	jmp    *0x5f3a(%rip) 
    2186:	68 15 00 00 00       	push   $0x15
    218b:	e9 90 fe ff ff       	jmp    2020 <_init+0x20>

0000000000002190 <_ZNSt14basic_ifstreamIcSt11char_traitsIcEE7is_openEv@plt>:
    2190:	ff 25 32 5f 00 00    	jmp    *0x5f32(%rip) 
    2196:	68 16 00 00 00       	push   $0x16
    219b:	e9 80 fe ff ff       	jmp    2020 <_init+0x20>

00000000000021a0 <__cxa_end_catch@plt>:
    21a0:	ff 25 2a 5f 00 00    	jmp    *0x5f2a(%rip) 
    21a6:	68 17 00 00 00       	push   $0x17
    21ab:	e9 70 fe ff ff       	jmp    2020 <_init+0x20>

00000000000021b0 <_Unwind_Resume@plt>:
    21b0:	ff 25 22 5f 00 00    	jmp    *0x5f22(%rip) 
    21b6:	68 18 00 00 00       	push   $0x18
    21bb:	e9 60 fe ff ff       	jmp    2020 <_init+0x20>

00000000000021c0 <_ZNSt14basic_ifstreamIcSt11char_traitsIcEEC1EPKcSt13_Ios_Openmode@plt>:
    21c0:	ff 25 1a 5f 00 00    	jmp    *0x5f1a(%rip) 
    21c6:	68 19 00 00 00       	push   $0x19
    21cb:	e9 50 fe ff ff       	jmp    2020 <_init+0x20>

00000000000021d0 <_ZSt7getlineIcSt11char_traitsIcESaIcEERSt13basic_istreamIT_T0_ES7_RNSt7__cxx1112basic_stringIS4_S5_T1_EES4_@plt>:
    21d0:	ff 25 12 5f 00 00    	jmp    *0x5f12(%rip) 
    21d6:	68 1a 00 00 00       	push   $0x1a
    21db:	e9 40 fe ff ff       	jmp    2020 <_init+0x20>

Disassembly of section .plt.got:

00000000000021e0 <__cxa_finalize@plt>:
    21e0:	ff 25 da 5d 00 00    	jmp    *0x5dda(%rip) 
    21e6:	66 90                	xchg   %ax,%ax

Disassembly of section .text:

00000000000021f0 <__cxx_global_var_init>:
    21f0:	55                   	push   %rbp
    21f1:	48 89 e5             	mov    %rsp,%rbp
    21f4:	48 8d 3d 0e 5f 00 00 	lea    0x5f0e(%rip),%rdi 
    21fb:	e8 70 ff ff ff       	call   2170 <_ZNSt8ios_base4InitC1Ev@plt>
    2200:	48 8b 3d f1 5d 00 00 	mov    0x5df1(%rip),%rdi 
    2207:	48 8d 35 fb 5e 00 00 	lea    0x5efb(%rip),%rsi 
    220e:	48 8d 15 e3 5e 00 00 	lea    0x5ee3(%rip),%rdx 
    2215:	e8 c6 fe ff ff       	call   20e0 <__cxa_atexit@plt>
    221a:	5d                   	pop    %rbp
    221b:	c3                   	ret    
    221c:	0f 1f 40 00          	nopl   0x0(%rax)

0000000000002220 <_GLOBAL__sub_I_csv_parser.cpp>:
    2220:	55                   	push   %rbp
    2221:	48 89 e5             	mov    %rsp,%rbp
    2224:	e8 c7 ff ff ff       	call   21f0 <__cxx_global_var_init>
    2229:	5d                   	pop    %rbp
    222a:	c3                   	ret    
    222b:	0f 1f 44 00 00       	nopl   0x0(%rax,%rax,1)

0000000000002230 <_start>:
    2230:	f3 0f 1e fa          	endbr64 
    2234:	31 ed                	xor    %ebp,%ebp
    2236:	49 89 d1             	mov    %rdx,%r9
    2239:	5e                   	pop    %rsi
    223a:	48 89 e2             	mov    %rsp,%rdx
    223d:	48 83 e4 f0          	and    $0xfffffffffffffff0,%rsp
    2241:	50                   	push   %rax
    2242:	54                   	push   %rsp
    2243:	45 31 c0             	xor    %r8d,%r8d
    2246:	31 c9                	xor    %ecx,%ecx
    2248:	48 8d 3d d1 00 00 00 	lea    0xd1(%rip),%rdi 
    224f:	ff 15 7b 5d 00 00    	call   *0x5d7b(%rip) 
    2255:	f4                   	hlt    
    2256:	66 2e 0f 1f 84 00 00 	cs nopw 0x0(%rax,%rax,1)
    225d:	00 00 00 

0000000000002260 <deregister_tm_clones>:
    2260:	48 8d 3d a1 5e 00 00 	lea    0x5ea1(%rip),%rdi 
    2267:	48 8d 05 9a 5e 00 00 	lea    0x5e9a(%rip),%rax 
    226e:	48 39 f8             	cmp    %rdi,%rax
    2271:	74 15                	je     2288 <deregister_tm_clones+0x28>
    2273:	48 8b 05 66 5d 00 00 	mov    0x5d66(%rip),%rax 
    227a:	48 85 c0             	test   %rax,%rax
    227d:	74 09                	je     2288 <deregister_tm_clones+0x28>
    227f:	ff e0                	jmp    *%rax
    2281:	0f 1f 80 00 00 00 00 	nopl   0x0(%rax)
    2288:	c3                   	ret    
    2289:	0f 1f 80 00 00 00 00 	nopl   0x0(%rax)

0000000000002290 <register_tm_clones>:
    2290:	48 8d 3d 71 5e 00 00 	lea    0x5e71(%rip),%rdi 
    2297:	48 8d 35 6a 5e 00 00 	lea    0x5e6a(%rip),%rsi 
    229e:	48 29 fe             	sub    %rdi,%rsi
    22a1:	48 89 f0             	mov    %rsi,%rax
    22a4:	48 c1 ee 3f          	shr    $0x3f,%rsi
    22a8:	48 c1 f8 03          	sar    $0x3,%rax
    22ac:	48 01 c6             	add    %rax,%rsi
    22af:	48 d1 fe             	sar    %rsi
    22b2:	74 14                	je     22c8 <register_tm_clones+0x38>
    22b4:	48 8b 05 35 5d 00 00 	mov    0x5d35(%rip),%rax 
    22bb:	48 85 c0             	test   %rax,%rax
    22be:	74 08                	je     22c8 <register_tm_clones+0x38>
    22c0:	ff e0                	jmp    *%rax
    22c2:	66 0f 1f 44 00 00    	nopw   0x0(%rax,%rax,1)
    22c8:	c3                   	ret    
    22c9:	0f 1f 80 00 00 00 00 	nopl   0x0(%rax)

00000000000022d0 <__do_global_dtors_aux>:
    22d0:	f3 0f 1e fa          	endbr64 
    22d4:	80 3d 2d 5e 00 00 00 	cmpb   $0x0,0x5e2d(%rip) 
    22db:	75 2b                	jne    2308 <__do_global_dtors_aux+0x38>
    22dd:	55                   	push   %rbp
    22de:	48 83 3d da 5c 00 00 	cmpq   $0x0,0x5cda(%rip) 
    22e5:	00 
    22e6:	48 89 e5             	mov    %rsp,%rbp
    22e9:	74 0c                	je     22f7 <__do_global_dtors_aux+0x27>
    22eb:	48 8b 3d 06 5e 00 00 	mov    0x5e06(%rip),%rdi 
    22f2:	e8 e9 fe ff ff       	call   21e0 <__cxa_finalize@plt>
    22f7:	e8 64 ff ff ff       	call   2260 <deregister_tm_clones>
    22fc:	c6 05 05 5e 00 00 01 	movb   $0x1,0x5e05(%rip) 
    2303:	5d                   	pop    %rbp
    2304:	c3                   	ret    
    2305:	0f 1f 00             	nopl   (%rax)
    2308:	c3                   	ret    
    2309:	0f 1f 80 00 00 00 00 	nopl   0x0(%rax)

0000000000002310 <frame_dummy>:
    2310:	f3 0f 1e fa          	endbr64 
    2314:	e9 77 ff ff ff       	jmp    2290 <register_tm_clones>
    2319:	0f 1f 80 00 00 00 00 	nopl   0x0(%rax)

0000000000002320 <main>:
    2320:	55                   	push   %rbp
    2321:	48 89 e5             	mov    %rsp,%rbp
    2324:	48 81 ec b0 04 00 00 	sub    $0x4b0,%rsp
    232b:	c7 45 fc 00 00 00 00 	movl   $0x0,-0x4(%rbp)
    2332:	48 8d 05 cb 2c 00 00 	lea    0x2ccb(%rip),%rax 
    2339:	48 89 45 f0          	mov    %rax,-0x10(%rbp)
    233d:	48 8b 75 f0          	mov    -0x10(%rbp),%rsi
    2341:	48 8d bd e8 fd ff ff 	lea    -0x218(%rbp),%rdi
    2348:	48 89 bd 90 fb ff ff 	mov    %rdi,-0x470(%rbp)
    234f:	ba 08 00 00 00       	mov    $0x8,%edx
    2354:	e8 67 fe ff ff       	call   21c0 <_ZNSt14basic_ifstreamIcSt11char_traitsIcEEC1EPKcSt13_Ios_Openmode@plt>
    2359:	48 8b bd 90 fb ff ff 	mov    -0x470(%rbp),%rdi
    2360:	e8 2b fe ff ff       	call   2190 <_ZNSt14basic_ifstreamIcSt11char_traitsIcEE7is_openEv@plt>
    2365:	88 85 9f fb ff ff    	mov    %al,-0x461(%rbp)
    236b:	e9 00 00 00 00       	jmp    2370 <main+0x50>
    2370:	8a 85 9f fb ff ff    	mov    -0x461(%rbp),%al
    2376:	a8 01                	test   $0x1,%al
    2378:	0f 85 85 00 00 00    	jne    2403 <main+0xe3>
    237e:	e9 00 00 00 00       	jmp    2383 <main+0x63>
    2383:	48 8b 3d 4e 5c 00 00 	mov    0x5c4e(%rip),%rdi 
    238a:	48 8d 35 87 2c 00 00 	lea    0x2c87(%rip),%rsi 
    2391:	e8 7a fd ff ff       	call   2110 <_ZStlsISt11char_traitsIcEERSt13basic_ostreamIcT_ES5_PKc@plt>
    2396:	48 89 85 88 fb ff ff 	mov    %rax,-0x478(%rbp)
    239d:	e9 00 00 00 00       	jmp    23a2 <main+0x82>
    23a2:	48 8b bd 88 fb ff ff 	mov    -0x478(%rbp),%rdi
    23a9:	48 8b 75 f0          	mov    -0x10(%rbp),%rsi
    23ad:	e8 5e fd ff ff       	call   2110 <_ZStlsISt11char_traitsIcEERSt13basic_ostreamIcT_ES5_PKc@plt>
    23b2:	48 89 85 80 fb ff ff 	mov    %rax,-0x480(%rbp)
    23b9:	e9 00 00 00 00       	jmp    23be <main+0x9e>
    23be:	48 8b bd 80 fb ff ff 	mov    -0x480(%rbp),%rdi
    23c5:	48 8b 35 fc 5b 00 00 	mov    0x5bfc(%rip),%rsi 
    23cc:	e8 5f fd ff ff       	call   2130 <_ZNSolsEPFRSoS_E@plt>
    23d1:	e9 00 00 00 00       	jmp    23d6 <main+0xb6>
    23d6:	c7 45 fc 01 00 00 00 	movl   $0x1,-0x4(%rbp)
    23dd:	c7 85 d8 fd ff ff 01 	movl   $0x1,-0x228(%rbp)
    23e4:	00 00 00 
    23e7:	e9 8a 03 00 00       	jmp    2776 <main+0x456>
    23ec:	48 89 c1             	mov    %rax,%rcx
    23ef:	89 d0                	mov    %edx,%eax
    23f1:	48 89 8d e0 fd ff ff 	mov    %rcx,-0x220(%rbp)
    23f8:	89 85 dc fd ff ff    	mov    %eax,-0x224(%rbp)
    23fe:	e9 8b 03 00 00       	jmp    278e <main+0x46e>
    2403:	48 8d bd c0 fd ff ff 	lea    -0x240(%rbp),%rdi
    240a:	e8 a1 03 00 00       	call   27b0 <_ZNSt6vectorI6CSVRowSaIS0_EEC2Ev>
    240f:	48 8d bd a0 fd ff ff 	lea    -0x260(%rbp),%rdi
    2416:	e8 35 fd ff ff       	call   2150 <_ZNSt7__cxx1112basic_stringIcSt11char_traitsIcESaIcEEC1Ev@plt>
    241b:	48 8d bd e8 fd ff ff 	lea    -0x218(%rbp),%rdi
    2422:	48 8d b5 a0 fd ff ff 	lea    -0x260(%rbp),%rsi
    2429:	e8 02 fc ff ff       	call   2030 <_ZSt7getlineIcSt11char_traitsIcESaIcEERSt13basic_istreamIT_T0_ES7_RNSt7__cxx1112basic_stringIS4_S5_T1_EE@plt>
    242e:	48 89 85 78 fb ff ff 	mov    %rax,-0x488(%rbp)
    2435:	e9 00 00 00 00       	jmp    243a <main+0x11a>
    243a:	48 8b bd 78 fb ff ff 	mov    -0x488(%rbp),%rdi
    2441:	48 8b 07             	mov    (%rdi),%rax
    2444:	48 8b 40 e8          	mov    -0x18(%rax),%rax
    2448:	48 01 c7             	add    %rax,%rdi
    244b:	e8 f0 fc ff ff       	call   2140 <_ZNKSt9basic_iosIcSt11char_traitsIcEEcvbEv@plt>
    2450:	88 85 77 fb ff ff    	mov    %al,-0x489(%rbp)
    2456:	e9 00 00 00 00       	jmp    245b <main+0x13b>
    245b:	8a 85 77 fb ff ff    	mov    -0x489(%rbp),%al
    2461:	a8 01                	test   $0x1,%al
    2463:	0f 85 05 00 00 00    	jne    246e <main+0x14e>
    2469:	e9 74 01 00 00       	jmp    25e2 <main+0x2c2>
    246e:	48 8d bd 88 fd ff ff 	lea    -0x278(%rbp),%rdi
    2475:	e8 56 03 00 00       	call   27d0 <_ZN6CSVRowC2Ev>
    247a:	bf 10 00 00 00       	mov    $0x10,%edi
    247f:	be 08 00 00 00       	mov    $0x8,%esi
    2484:	e8 67 03 00 00       	call   27f0 <_ZStorSt13_Ios_OpenmodeS_>
    2489:	89 85 70 fb ff ff    	mov    %eax,-0x490(%rbp)
    248f:	e9 00 00 00 00       	jmp    2494 <main+0x174>
    2494:	8b 95 70 fb ff ff    	mov    -0x490(%rbp),%edx
    249a:	48 8d bd 00 fc ff ff 	lea    -0x400(%rbp),%rdi
    24a1:	48 8d b5 a0 fd ff ff 	lea    -0x260(%rbp),%rsi
    24a8:	e8 d3 fc ff ff       	call   2180 <_ZNSt7__cxx1118basic_stringstreamIcSt11char_traitsIcESaIcEEC1ERKNS_12basic_stringIcS2_S3_EESt13_Ios_Openmode@plt>
    24ad:	e9 00 00 00 00       	jmp    24b2 <main+0x192>
    24b2:	48 8d bd e0 fb ff ff 	lea    -0x420(%rbp),%rdi
    24b9:	e8 92 fc ff ff       	call   2150 <_ZNSt7__cxx1112basic_stringIcSt11char_traitsIcESaIcEEC1Ev@plt>
    24be:	48 8d bd 00 fc ff ff 	lea    -0x400(%rbp),%rdi
    24c5:	48 8d b5 e0 fb ff ff 	lea    -0x420(%rbp),%rsi
    24cc:	ba 2c 00 00 00       	mov    $0x2c,%edx
    24d1:	e8 fa fc ff ff       	call   21d0 <_ZSt7getlineIcSt11char_traitsIcESaIcEERSt13basic_istreamIT_T0_ES7_RNSt7__cxx1112basic_stringIS4_S5_T1_EES4_@plt>
    24d6:	48 89 85 68 fb ff ff 	mov    %rax,-0x498(%rbp)
    24dd:	e9 00 00 00 00       	jmp    24e2 <main+0x1c2>
    24e2:	48 8b bd 68 fb ff ff 	mov    -0x498(%rbp),%rdi
    24e9:	48 8b 07             	mov    (%rdi),%rax
    24ec:	48 8b 40 e8          	mov    -0x18(%rax),%rax
    24f0:	48 01 c7             	add    %rax,%rdi
    24f3:	e8 48 fc ff ff       	call   2140 <_ZNKSt9basic_iosIcSt11char_traitsIcEEcvbEv@plt>
    24f8:	88 85 67 fb ff ff    	mov    %al,-0x499(%rbp)
    24fe:	e9 00 00 00 00       	jmp    2503 <main+0x1e3>
    2503:	8a 85 67 fb ff ff    	mov    -0x499(%rbp),%al
    2509:	a8 01                	test   $0x1,%al
    250b:	0f 85 05 00 00 00    	jne    2516 <main+0x1f6>
    2511:	e9 7a 00 00 00       	jmp    2590 <main+0x270>
    2516:	48 8d bd 88 fd ff ff 	lea    -0x278(%rbp),%rdi
    251d:	48 8d b5 e0 fb ff ff 	lea    -0x420(%rbp),%rsi
    2524:	e8 e7 02 00 00       	call   2810 <_ZNSt6vectorINSt7__cxx1112basic_stringIcSt11char_traitsIcESaIcEEESaIS5_EE9push_backERKS5_>
    2529:	e9 00 00 00 00       	jmp    252e <main+0x20e>
    252e:	e9 8b ff ff ff       	jmp    24be <main+0x19e>
    2533:	48 89 c1             	mov    %rax,%rcx
    2536:	89 d0                	mov    %edx,%eax
    2538:	48 89 8d e0 fd ff ff 	mov    %rcx,-0x220(%rbp)
    253f:	89 85 dc fd ff ff    	mov    %eax,-0x224(%rbp)
    2545:	e9 0f 02 00 00       	jmp    2759 <main+0x439>
    254a:	48 89 c1             	mov    %rax,%rcx
    254d:	89 d0                	mov    %edx,%eax
    254f:	48 89 8d e0 fd ff ff 	mov    %rcx,-0x220(%rbp)
    2556:	89 85 dc fd ff ff    	mov    %eax,-0x224(%rbp)
    255c:	e9 70 00 00 00       	jmp    25d1 <main+0x2b1>
    2561:	48 89 c1             	mov    %rax,%rcx
    2564:	89 d0                	mov    %edx,%eax
    2566:	48 89 8d e0 fd ff ff 	mov    %rcx,-0x220(%rbp)
    256d:	89 85 dc fd ff ff    	mov    %eax,-0x224(%rbp)
    2573:	48 8d bd e0 fb ff ff 	lea    -0x420(%rbp),%rdi
    257a:	e8 31 fb ff ff       	call   20b0 <_ZNSt7__cxx1112basic_stringIcSt11char_traitsIcESaIcEED1Ev@plt>
    257f:	48 8d bd 00 fc ff ff 	lea    -0x400(%rbp),%rdi
    2586:	e8 35 fb ff ff       	call   20c0 <_ZNSt7__cxx1118basic_stringstreamIcSt11char_traitsIcESaIcEED1Ev@plt>
    258b:	e9 41 00 00 00       	jmp    25d1 <main+0x2b1>
    2590:	48 8d bd c0 fd ff ff 	lea    -0x240(%rbp),%rdi
    2597:	48 8d b5 88 fd ff ff 	lea    -0x278(%rbp),%rsi
    259e:	e8 ed 02 00 00       	call   2890 <_ZNSt6vectorI6CSVRowSaIS0_EE9push_backERKS0_>
    25a3:	e9 00 00 00 00       	jmp    25a8 <main+0x288>
    25a8:	48 8d bd e0 fb ff ff 	lea    -0x420(%rbp),%rdi
    25af:	e8 fc fa ff ff       	call   20b0 <_ZNSt7__cxx1112basic_stringIcSt11char_traitsIcESaIcEED1Ev@plt>
    25b4:	48 8d bd 00 fc ff ff 	lea    -0x400(%rbp),%rdi
    25bb:	e8 00 fb ff ff       	call   20c0 <_ZNSt7__cxx1118basic_stringstreamIcSt11char_traitsIcESaIcEED1Ev@plt>
    25c0:	48 8d bd 88 fd ff ff 	lea    -0x278(%rbp),%rdi
    25c7:	e8 44 03 00 00       	call   2910 <_ZN6CSVRowD2Ev>
    25cc:	e9 4a fe ff ff       	jmp    241b <main+0xfb>
    25d1:	48 8d bd 88 fd ff ff 	lea    -0x278(%rbp),%rdi
    25d8:	e8 33 03 00 00       	call   2910 <_ZN6CSVRowD2Ev>
    25dd:	e9 77 01 00 00       	jmp    2759 <main+0x439>
    25e2:	48 8d 85 c0 fd ff ff 	lea    -0x240(%rbp),%rax
    25e9:	48 89 85 d8 fb ff ff 	mov    %rax,-0x428(%rbp)
    25f0:	48 8b bd d8 fb ff ff 	mov    -0x428(%rbp),%rdi
    25f7:	e8 34 03 00 00       	call   2930 <_ZNSt6vectorI6CSVRowSaIS0_EE5beginEv>
    25fc:	48 89 85 d0 fb ff ff 	mov    %rax,-0x430(%rbp)
    2603:	48 8b bd d8 fb ff ff 	mov    -0x428(%rbp),%rdi
    260a:	e8 51 03 00 00       	call   2960 <_ZNSt6vectorI6CSVRowSaIS0_EE3endEv>
    260f:	48 89 85 c8 fb ff ff 	mov    %rax,-0x438(%rbp)
    2616:	48 8d bd d0 fb ff ff 	lea    -0x430(%rbp),%rdi
    261d:	48 8d b5 c8 fb ff ff 	lea    -0x438(%rbp),%rsi
    2624:	e8 67 03 00 00       	call   2990 <_ZN9__gnu_cxxneIP6CSVRowSt6vectorIS1_SaIS1_EEEEbRKNS_17__normal_iteratorIT_T0_EESB_>
    2629:	a8 01                	test   $0x1,%al
    262b:	0f 85 05 00 00 00    	jne    2636 <main+0x316>
    2631:	e9 f5 00 00 00       	jmp    272b <main+0x40b>
    2636:	48 8d bd d0 fb ff ff 	lea    -0x430(%rbp),%rdi
    263d:	e8 9e 03 00 00       	call   29e0 <_ZNK9__gnu_cxx17__normal_iteratorIP6CSVRowSt6vectorIS1_SaIS1_EEEdeEv>
    2642:	48 89 85 c0 fb ff ff 	mov    %rax,-0x440(%rbp)
    2649:	48 8b 85 c0 fb ff ff 	mov    -0x440(%rbp),%rax
    2650:	48 89 85 b8 fb ff ff 	mov    %rax,-0x448(%rbp)
    2657:	48 8b bd b8 fb ff ff 	mov    -0x448(%rbp),%rdi
    265e:	e8 9d 03 00 00       	call   2a00 <_ZNSt6vectorINSt7__cxx1112basic_stringIcSt11char_traitsIcESaIcEEESaIS5_EE5beginEv>
    2663:	48 89 85 b0 fb ff ff 	mov    %rax,-0x450(%rbp)
    266a:	48 8b bd b8 fb ff ff 	mov    -0x448(%rbp),%rdi
    2671:	e8 ba 03 00 00       	call   2a30 <_ZNSt6vectorINSt7__cxx1112basic_stringIcSt11char_traitsIcESaIcEEESaIS5_EE3endEv>
    2676:	48 89 85 a8 fb ff ff 	mov    %rax,-0x458(%rbp)
    267d:	48 8d bd b0 fb ff ff 	lea    -0x450(%rbp),%rdi
    2684:	48 8d b5 a8 fb ff ff 	lea    -0x458(%rbp),%rsi
    268b:	e8 d0 03 00 00       	call   2a60 <_ZN9__gnu_cxxneIPNSt7__cxx1112basic_stringIcSt11char_traitsIcESaIcEEESt6vectorIS6_SaIS6_EEEEbRKNS_17__normal_iteratorIT_T0_EESG_>
    2690:	a8 01                	test   $0x1,%al
    2692:	0f 85 05 00 00 00    	jne    269d <main+0x37d>
    2698:	e9 60 00 00 00       	jmp    26fd <main+0x3dd>
    269d:	48 8d bd b0 fb ff ff 	lea    -0x450(%rbp),%rdi
    26a4:	e8 07 04 00 00       	call   2ab0 <_ZNK9__gnu_cxx17__normal_iteratorIPNSt7__cxx1112basic_stringIcSt11char_traitsIcESaIcEEESt6vectorIS6_SaIS6_EEEdeEv>
    26a9:	48 89 85 a0 fb ff ff 	mov    %rax,-0x460(%rbp)
    26b0:	48 8b b5 a0 fb ff ff 	mov    -0x460(%rbp),%rsi
    26b7:	48 8b 3d 1a 59 00 00 	mov    0x591a(%rip),%rdi 
    26be:	e8 2d fa ff ff       	call   20f0 <_ZStlsIcSt11char_traitsIcESaIcEERSt13basic_ostreamIT_T0_ES7_RKNSt7__cxx1112basic_stringIS4_S5_T1_EE@plt>
    26c3:	48 89 85 58 fb ff ff 	mov    %rax,-0x4a8(%rbp)
    26ca:	e9 00 00 00 00       	jmp    26cf <main+0x3af>
    26cf:	48 8b bd 58 fb ff ff 	mov    -0x4a8(%rbp),%rdi
    26d6:	48 8d 35 4e 29 00 00 	lea    0x294e(%rip),%rsi 
    26dd:	e8 2e fa ff ff       	call   2110 <_ZStlsISt11char_traitsIcEERSt13basic_ostreamIcT_ES5_PKc@plt>
    26e2:	e9 00 00 00 00       	jmp    26e7 <main+0x3c7>
    26e7:	e9 00 00 00 00       	jmp    26ec <main+0x3cc>
    26ec:	48 8d bd b0 fb ff ff 	lea    -0x450(%rbp),%rdi
    26f3:	e8 d8 03 00 00       	call   2ad0 <_ZN9__gnu_cxx17__normal_iteratorIPNSt7__cxx1112basic_stringIcSt11char_traitsIcESaIcEEESt6vectorIS6_SaIS6_EEEppEv>
    26f8:	e9 80 ff ff ff       	jmp    267d <main+0x35d>
    26fd:	48 8b 3d d4 58 00 00 	mov    0x58d4(%rip),%rdi 
    2704:	48 8b 35 bd 58 00 00 	mov    0x58bd(%rip),%rsi 
    270b:	e8 20 fa ff ff       	call   2130 <_ZNSolsEPFRSoS_E@plt>
    2710:	e9 00 00 00 00       	jmp    2715 <main+0x3f5>
    2715:	e9 00 00 00 00       	jmp    271a <main+0x3fa>
    271a:	48 8d bd d0 fb ff ff 	lea    -0x430(%rbp),%rdi
    2721:	e8 ca 03 00 00       	call   2af0 <_ZN9__gnu_cxx17__normal_iteratorIP6CSVRowSt6vectorIS1_SaIS1_EEEppEv>
    2726:	e9 eb fe ff ff       	jmp    2616 <main+0x2f6>
    272b:	c7 45 fc 00 00 00 00 	movl   $0x0,-0x4(%rbp)
    2732:	c7 85 d8 fd ff ff 01 	movl   $0x1,-0x228(%rbp)
    2739:	00 00 00 
    273c:	48 8d bd a0 fd ff ff 	lea    -0x260(%rbp),%rdi
    2743:	e8 68 f9 ff ff       	call   20b0 <_ZNSt7__cxx1112basic_stringIcSt11char_traitsIcESaIcEED1Ev@plt>
    2748:	48 8d bd c0 fd ff ff 	lea    -0x240(%rbp),%rdi
    274f:	e8 bc 03 00 00       	call   2b10 <_ZNSt6vectorI6CSVRowSaIS0_EED2Ev>
    2754:	e9 1d 00 00 00       	jmp    2776 <main+0x456>
    2759:	48 8d bd a0 fd ff ff 	lea    -0x260(%rbp),%rdi
    2760:	e8 4b f9 ff ff       	call   20b0 <_ZNSt7__cxx1112basic_stringIcSt11char_traitsIcESaIcEED1Ev@plt>
    2765:	48 8d bd c0 fd ff ff 	lea    -0x240(%rbp),%rdi
    276c:	e8 9f 03 00 00       	call   2b10 <_ZNSt6vectorI6CSVRowSaIS0_EED2Ev>
    2771:	e9 18 00 00 00       	jmp    278e <main+0x46e>
    2776:	48 8d bd e8 fd ff ff 	lea    -0x218(%rbp),%rdi
    277d:	e8 be f8 ff ff       	call   2040 <_ZNSt14basic_ifstreamIcSt11char_traitsIcEED1Ev@plt>
    2782:	8b 45 fc             	mov    -0x4(%rbp),%eax
    2785:	48 81 c4 b0 04 00 00 	add    $0x4b0,%rsp
    278c:	5d                   	pop    %rbp
    278d:	c3                   	ret    
    278e:	48 8d bd e8 fd ff ff 	lea    -0x218(%rbp),%rdi
    2795:	e8 a6 f8 ff ff       	call   2040 <_ZNSt14basic_ifstreamIcSt11char_traitsIcEED1Ev@plt>
    279a:	48 8b bd e0 fd ff ff 	mov    -0x220(%rbp),%rdi
    27a1:	e8 0a fa ff ff       	call   21b0 <_Unwind_Resume@plt>
    27a6:	66 2e 0f 1f 84 00 00 	cs nopw 0x0(%rax,%rax,1)
    27ad:	00 00 00 

00000000000027b0 <_ZNSt6vectorI6CSVRowSaIS0_EEC2Ev>:
    27b0:	55                   	push   %rbp
    27b1:	48 89 e5             	mov    %rsp,%rbp
    27b4:	48 83 ec 10          	sub    $0x10,%rsp
    27b8:	48 89 7d f8          	mov    %rdi,-0x8(%rbp)
    27bc:	48 8b 7d f8          	mov    -0x8(%rbp),%rdi
    27c0:	e8 bb 03 00 00       	call   2b80 <_ZNSt12_Vector_baseI6CSVRowSaIS0_EEC2Ev>
    27c5:	48 83 c4 10          	add    $0x10,%rsp
    27c9:	5d                   	pop    %rbp
    27ca:	c3                   	ret    
    27cb:	0f 1f 44 00 00       	nopl   0x0(%rax,%rax,1)

00000000000027d0 <_ZN6CSVRowC2Ev>:
    27d0:	55                   	push   %rbp
    27d1:	48 89 e5             	mov    %rsp,%rbp
    27d4:	48 83 ec 10          	sub    $0x10,%rsp
    27d8:	48 89 7d f8          	mov    %rdi,-0x8(%rbp)
    27dc:	48 8b 7d f8          	mov    -0x8(%rbp),%rdi
    27e0:	e8 4b 04 00 00       	call   2c30 <_ZNSt6vectorINSt7__cxx1112basic_stringIcSt11char_traitsIcESaIcEEESaIS5_EEC2Ev>
    27e5:	48 83 c4 10          	add    $0x10,%rsp
    27e9:	5d                   	pop    %rbp
    27ea:	c3                   	ret    
    27eb:	0f 1f 44 00 00       	nopl   0x0(%rax,%rax,1)

00000000000027f0 <_ZStorSt13_Ios_OpenmodeS_>:
    27f0:	55                   	push   %rbp
    27f1:	48 89 e5             	mov    %rsp,%rbp
    27f4:	89 7d fc             	mov    %edi,-0x4(%rbp)
    27f7:	89 75 f8             	mov    %esi,-0x8(%rbp)
    27fa:	8b 45 fc             	mov    -0x4(%rbp),%eax
    27fd:	0b 45 f8             	or     -0x8(%rbp),%eax
    2800:	5d                   	pop    %rbp
    2801:	c3                   	ret    
    2802:	66 2e 0f 1f 84 00 00 	cs nopw 0x0(%rax,%rax,1)
    2809:	00 00 00 
    280c:	0f 1f 40 00          	nopl   0x0(%rax)

0000000000002810 <_ZNSt6vectorINSt7__cxx1112basic_stringIcSt11char_traitsIcESaIcEEESaIS5_EE9push_backERKS5_>:
    2810:	55                   	push   %rbp
    2811:	48 89 e5             	mov    %rsp,%rbp
    2814:	48 83 ec 20          	sub    $0x20,%rsp
    2818:	48 89 7d f8          	mov    %rdi,-0x8(%rbp)
    281c:	48 89 75 f0          	mov    %rsi,-0x10(%rbp)
    2820:	48 8b 4d f8          	mov    -0x8(%rbp),%rcx
    2824:	48 89 4d e0          	mov    %rcx,-0x20(%rbp)
    2828:	48 8b 41 08          	mov    0x8(%rcx),%rax
    282c:	48 3b 41 10          	cmp    0x10(%rcx),%rax
    2830:	0f 84 29 00 00 00    	je     285f <_ZNSt6vectorINSt7__cxx1112basic_stringIcSt11char_traitsIcESaIcEEESaIS5_EE9push_backERKS5_+0x4f>
    2836:	48 8b 45 e0          	mov    -0x20(%rbp),%rax
    283a:	48 89 c7             	mov    %rax,%rdi
    283d:	48 8b 70 08          	mov    0x8(%rax),%rsi
    2841:	48 8b 55 f0          	mov    -0x10(%rbp),%rdx
    2845:	e8 a6 09 00 00       	call   31f0 <_ZNSt16allocator_traitsISaINSt7__cxx1112basic_stringIcSt11char_traitsIcESaIcEEEEE9constructIS5_JRKS5_EEEvRS6_PT_DpOT0_>
    284a:	48 8b 45 e0          	mov    -0x20(%rbp),%rax
    284e:	48 8b 48 08          	mov    0x8(%rax),%rcx
    2852:	48 83 c1 20          	add    $0x20,%rcx
    2856:	48 89 48 08          	mov    %rcx,0x8(%rax)
    285a:	e9 1e 00 00 00       	jmp    287d <_ZNSt6vectorINSt7__cxx1112basic_stringIcSt11char_traitsIcESaIcEEESaIS5_EE9push_backERKS5_+0x6d>
    285f:	48 8b 7d e0          	mov    -0x20(%rbp),%rdi
    2863:	e8 c8 01 00 00       	call   2a30 <_ZNSt6vectorINSt7__cxx1112basic_stringIcSt11char_traitsIcESaIcEEESaIS5_EE3endEv>
    2868:	48 8b 7d e0          	mov    -0x20(%rbp),%rdi
    286c:	48 89 45 e8          	mov    %rax,-0x18(%rbp)
    2870:	48 8b 55 f0          	mov    -0x10(%rbp),%rdx
    2874:	48 8b 75 e8          	mov    -0x18(%rbp),%rsi
    2878:	e8 c3 09 00 00       	call   3240 <_ZNSt6vectorINSt7__cxx1112basic_stringIcSt11char_traitsIcESaIcEEESaIS5_EE17_M_realloc_insertIJRKS5_EEEvN9__gnu_cxx17__normal_iteratorIPS5_S7_EEDpOT_>
    287d:	48 83 c4 20          	add    $0x20,%rsp
    2881:	5d                   	pop    %rbp
    2882:	c3                   	ret    
    2883:	66 2e 0f 1f 84 00 00 	cs nopw 0x0(%rax,%rax,1)
    288a:	00 00 00 
    288d:	0f 1f 00             	nopl   (%rax)

0000000000002890 <_ZNSt6vectorI6CSVRowSaIS0_EE9push_backERKS0_>:
    2890:	55                   	push   %rbp
    2891:	48 89 e5             	mov    %rsp,%rbp
    2894:	48 83 ec 20          	sub    $0x20,%rsp
    2898:	48 89 7d f8          	mov    %rdi,-0x8(%rbp)
    289c:	48 89 75 f0          	mov    %rsi,-0x10(%rbp)
    28a0:	48 8b 4d f8          	mov    -0x8(%rbp),%rcx
    28a4:	48 89 4d e0          	mov    %rcx,-0x20(%rbp)
    28a8:	48 8b 41 08          	mov    0x8(%rcx),%rax
    28ac:	48 3b 41 10          	cmp    0x10(%rcx),%rax
    28b0:	0f 84 29 00 00 00    	je     28df <_ZNSt6vectorI6CSVRowSaIS0_EE9push_backERKS0_+0x4f>
    28b6:	48 8b 45 e0          	mov    -0x20(%rbp),%rax
    28ba:	48 89 c7             	mov    %rax,%rdi
    28bd:	48 8b 70 08          	mov    0x8(%rax),%rsi
    28c1:	48 8b 55 f0          	mov    -0x10(%rbp),%rdx
    28c5:	e8 e6 12 00 00       	call   3bb0 <_ZNSt16allocator_traitsISaI6CSVRowEE9constructIS0_JRKS0_EEEvRS1_PT_DpOT0_>
    28ca:	48 8b 45 e0          	mov    -0x20(%rbp),%rax
    28ce:	48 8b 48 08          	mov    0x8(%rax),%rcx
    28d2:	48 83 c1 18          	add    $0x18,%rcx
    28d6:	48 89 48 08          	mov    %rcx,0x8(%rax)
    28da:	e9 1e 00 00 00       	jmp    28fd <_ZNSt6vectorI6CSVRowSaIS0_EE9push_backERKS0_+0x6d>
    28df:	48 8b 7d e0          	mov    -0x20(%rbp),%rdi
    28e3:	e8 78 00 00 00       	call   2960 <_ZNSt6vectorI6CSVRowSaIS0_EE3endEv>
    28e8:	48 8b 7d e0          	mov    -0x20(%rbp),%rdi
    28ec:	48 89 45 e8          	mov    %rax,-0x18(%rbp)
    28f0:	48 8b 55 f0          	mov    -0x10(%rbp),%rdx
    28f4:	48 8b 75 e8          	mov    -0x18(%rbp),%rsi
    28f8:	e8 03 13 00 00       	call   3c00 <_ZNSt6vectorI6CSVRowSaIS0_EE17_M_realloc_insertIJRKS0_EEEvN9__gnu_cxx17__normal_iteratorIPS0_S2_EEDpOT_>
    28fd:	48 83 c4 20          	add    $0x20,%rsp
    2901:	5d                   	pop    %rbp
    2902:	c3                   	ret    
    2903:	66 2e 0f 1f 84 00 00 	cs nopw 0x0(%rax,%rax,1)
    290a:	00 00 00 
    290d:	0f 1f 00             	nopl   (%rax)

0000000000002910 <_ZN6CSVRowD2Ev>:
    2910:	55                   	push   %rbp
    2911:	48 89 e5             	mov    %rsp,%rbp
    2914:	48 83 ec 10          	sub    $0x10,%rsp
    2918:	48 89 7d f8          	mov    %rdi,-0x8(%rbp)
    291c:	48 8b 7d f8          	mov    -0x8(%rbp),%rdi
    2920:	e8 db 03 00 00       	call   2d00 <_ZNSt6vectorINSt7__cxx1112basic_stringIcSt11char_traitsIcESaIcEEESaIS5_EED2Ev>
    2925:	48 83 c4 10          	add    $0x10,%rsp
    2929:	5d                   	pop    %rbp
    292a:	c3                   	ret    
    292b:	0f 1f 44 00 00       	nopl   0x0(%rax,%rax,1)

0000000000002930 <_ZNSt6vectorI6CSVRowSaIS0_EE5beginEv>:
    2930:	55                   	push   %rbp
    2931:	48 89 e5             	mov    %rsp,%rbp
    2934:	48 83 ec 10          	sub    $0x10,%rsp
    2938:	48 89 7d f0          	mov    %rdi,-0x10(%rbp)
    293c:	48 8b 75 f0          	mov    -0x10(%rbp),%rsi
    2940:	48 8d 7d f8          	lea    -0x8(%rbp),%rdi
    2944:	e8 97 22 00 00       	call   4be0 <_ZN9__gnu_cxx17__normal_iteratorIP6CSVRowSt6vectorIS1_SaIS1_EEEC2ERKS2_>
    2949:	48 8b 45 f8          	mov    -0x8(%rbp),%rax
    294d:	48 83 c4 10          	add    $0x10,%rsp
    2951:	5d                   	pop    %rbp
    2952:	c3                   	ret    
    2953:	66 2e 0f 1f 84 00 00 	cs nopw 0x0(%rax,%rax,1)
    295a:	00 00 00 
    295d:	0f 1f 00             	nopl   (%rax)

0000000000002960 <_ZNSt6vectorI6CSVRowSaIS0_EE3endEv>:
    2960:	55                   	push   %rbp
    2961:	48 89 e5             	mov    %rsp,%rbp
    2964:	48 83 ec 10          	sub    $0x10,%rsp
    2968:	48 89 7d f0          	mov    %rdi,-0x10(%rbp)
    296c:	48 8b 75 f0          	mov    -0x10(%rbp),%rsi
    2970:	48 83 c6 08          	add    $0x8,%rsi
    2974:	48 8d 7d f8          	lea    -0x8(%rbp),%rdi
    2978:	e8 63 22 00 00       	call   4be0 <_ZN9__gnu_cxx17__normal_iteratorIP6CSVRowSt6vectorIS1_SaIS1_EEEC2ERKS2_>
    297d:	48 8b 45 f8          	mov    -0x8(%rbp),%rax
    2981:	48 83 c4 10          	add    $0x10,%rsp
    2985:	5d                   	pop    %rbp
    2986:	c3                   	ret    
    2987:	66 0f 1f 84 00 00 00 	nopw   0x0(%rax,%rax,1)
    298e:	00 00 

0000000000002990 <_ZN9__gnu_cxxneIP6CSVRowSt6vectorIS1_SaIS1_EEEEbRKNS_17__normal_iteratorIT_T0_EESB_>:
    2990:	55                   	push   %rbp
    2991:	48 89 e5             	mov    %rsp,%rbp
    2994:	48 83 ec 20          	sub    $0x20,%rsp
    2998:	48 89 7d f8          	mov    %rdi,-0x8(%rbp)
    299c:	48 89 75 f0          	mov    %rsi,-0x10(%rbp)
    29a0:	48 8b 7d f8          	mov    -0x8(%rbp),%rdi
    29a4:	e8 87 1c 00 00       	call   4630 <_ZNK9__gnu_cxx17__normal_iteratorIP6CSVRowSt6vectorIS1_SaIS1_EEE4baseEv>
    29a9:	48 8b 00             	mov    (%rax),%rax
    29ac:	48 89 45 e8          	mov    %rax,-0x18(%rbp)
    29b0:	48 8b 7d f0          	mov    -0x10(%rbp),%rdi
    29b4:	e8 77 1c 00 00       	call   4630 <_ZNK9__gnu_cxx17__normal_iteratorIP6CSVRowSt6vectorIS1_SaIS1_EEE4baseEv>
    29b9:	48 89 c1             	mov    %rax,%rcx
    29bc:	48 8b 45 e8          	mov    -0x18(%rbp),%rax
    29c0:	48 3b 01             	cmp    (%rcx),%rax
    29c3:	0f 95 c0             	setne  %al
    29c6:	24 01                	and    $0x1,%al
    29c8:	0f b6 c0             	movzbl %al,%eax
    29cb:	48 83 c4 20          	add    $0x20,%rsp
    29cf:	5d                   	pop    %rbp
    29d0:	c3                   	ret    
    29d1:	66 2e 0f 1f 84 00 00 	cs nopw 0x0(%rax,%rax,1)
    29d8:	00 00 00 
    29db:	0f 1f 44 00 00       	nopl   0x0(%rax,%rax,1)

00000000000029e0 <_ZNK9__gnu_cxx17__normal_iteratorIP6CSVRowSt6vectorIS1_SaIS1_EEEdeEv>:
    29e0:	55                   	push   %rbp
    29e1:	48 89 e5             	mov    %rsp,%rbp
    29e4:	48 89 7d f8          	mov    %rdi,-0x8(%rbp)
    29e8:	48 8b 45 f8          	mov    -0x8(%rbp),%rax
    29ec:	48 8b 00             	mov    (%rax),%rax
    29ef:	5d                   	pop    %rbp
    29f0:	c3                   	ret    
    29f1:	66 2e 0f 1f 84 00 00 	cs nopw 0x0(%rax,%rax,1)
    29f8:	00 00 00 
    29fb:	0f 1f 44 00 00       	nopl   0x0(%rax,%rax,1)

0000000000002a00 <_ZNSt6vectorINSt7__cxx1112basic_stringIcSt11char_traitsIcESaIcEEESaIS5_EE5beginEv>:
    2a00:	55                   	push   %rbp
    2a01:	48 89 e5             	mov    %rsp,%rbp
    2a04:	48 83 ec 10          	sub    $0x10,%rsp
    2a08:	48 89 7d f0          	mov    %rdi,-0x10(%rbp)
    2a0c:	48 8b 75 f0          	mov    -0x10(%rbp),%rsi
    2a10:	48 8d 7d f8          	lea    -0x8(%rbp),%rdi
    2a14:	e8 e7 21 00 00       	call   4c00 <_ZN9__gnu_cxx17__normal_iteratorIPNSt7__cxx1112basic_stringIcSt11char_traitsIcESaIcEEESt6vectorIS6_SaIS6_EEEC2ERKS7_>
    2a19:	48 8b 45 f8          	mov    -0x8(%rbp),%rax
    2a1d:	48 83 c4 10          	add    $0x10,%rsp
    2a21:	5d                   	pop    %rbp
    2a22:	c3                   	ret    
    2a23:	66 2e 0f 1f 84 00 00 	cs nopw 0x0(%rax,%rax,1)
    2a2a:	00 00 00 
    2a2d:	0f 1f 00             	nopl   (%rax)

0000000000002a30 <_ZNSt6vectorINSt7__cxx1112basic_stringIcSt11char_traitsIcESaIcEEESaIS5_EE3endEv>:
    2a30:	55                   	push   %rbp
    2a31:	48 89 e5             	mov    %rsp,%rbp
    2a34:	48 83 ec 10          	sub    $0x10,%rsp
    2a38:	48 89 7d f0          	mov    %rdi,-0x10(%rbp)
    2a3c:	48 8b 75 f0          	mov    -0x10(%rbp),%rsi
    2a40:	48 83 c6 08          	add    $0x8,%rsi
    2a44:	48 8d 7d f8          	lea    -0x8(%rbp),%rdi
    2a48:	e8 b3 21 00 00       	call   4c00 <_ZN9__gnu_cxx17__normal_iteratorIPNSt7__cxx1112basic_stringIcSt11char_traitsIcESaIcEEESt6vectorIS6_SaIS6_EEEC2ERKS7_>
    2a4d:	48 8b 45 f8          	mov    -0x8(%rbp),%rax
    2a51:	48 83 c4 10          	add    $0x10,%rsp
    2a55:	5d                   	pop    %rbp
    2a56:	c3                   	ret    
    2a57:	66 0f 1f 84 00 00 00 	nopw   0x0(%rax,%rax,1)
    2a5e:	00 00 

0000000000002a60 <_ZN9__gnu_cxxneIPNSt7__cxx1112basic_stringIcSt11char_traitsIcESaIcEEESt6vectorIS6_SaIS6_EEEEbRKNS_17__normal_iteratorIT_T0_EESG_>:
    2a60:	55                   	push   %rbp
    2a61:	48 89 e5             	mov    %rsp,%rbp
    2a64:	48 83 ec 20          	sub    $0x20,%rsp
    2a68:	48 89 7d f8          	mov    %rdi,-0x8(%rbp)
    2a6c:	48 89 75 f0          	mov    %rsi,-0x10(%rbp)
    2a70:	48 8b 7d f8          	mov    -0x8(%rbp),%rdi
    2a74:	e8 57 0c 00 00       	call   36d0 <_ZNK9__gnu_cxx17__normal_iteratorIPNSt7__cxx1112basic_stringIcSt11char_traitsIcESaIcEEESt6vectorIS6_SaIS6_EEE4baseEv>
    2a79:	48 8b 00             	mov    (%rax),%rax
    2a7c:	48 89 45 e8          	mov    %rax,-0x18(%rbp)
    2a80:	48 8b 7d f0          	mov    -0x10(%rbp),%rdi
    2a84:	e8 47 0c 00 00       	call   36d0 <_ZNK9__gnu_cxx17__normal_iteratorIPNSt7__cxx1112basic_stringIcSt11char_traitsIcESaIcEEESt6vectorIS6_SaIS6_EEE4baseEv>
    2a89:	48 89 c1             	mov    %rax,%rcx
    2a8c:	48 8b 45 e8          	mov    -0x18(%rbp),%rax
    2a90:	48 3b 01             	cmp    (%rcx),%rax
    2a93:	0f 95 c0             	setne  %al
    2a96:	24 01                	and    $0x1,%al
    2a98:	0f b6 c0             	movzbl %al,%eax
    2a9b:	48 83 c4 20          	add    $0x20,%rsp
    2a9f:	5d                   	pop    %rbp
    2aa0:	c3                   	ret    
    2aa1:	66 2e 0f 1f 84 00 00 	cs nopw 0x0(%rax,%rax,1)
    2aa8:	00 00 00 
    2aab:	0f 1f 44 00 00       	nopl   0x0(%rax,%rax,1)

0000000000002ab0 <_ZNK9__gnu_cxx17__normal_iteratorIPNSt7__cxx1112basic_stringIcSt11char_traitsIcESaIcEEESt6vectorIS6_SaIS6_EEEdeEv>:
    2ab0:	55                   	push   %rbp
    2ab1:	48 89 e5             	mov    %rsp,%rbp
    2ab4:	48 89 7d f8          	mov    %rdi,-0x8(%rbp)
    2ab8:	48 8b 45 f8          	mov    -0x8(%rbp),%rax
    2abc:	48 8b 00             	mov    (%rax),%rax
    2abf:	5d                   	pop    %rbp
    2ac0:	c3                   	ret    
    2ac1:	66 2e 0f 1f 84 00 00 	cs nopw 0x0(%rax,%rax,1)
    2ac8:	00 00 00 
    2acb:	0f 1f 44 00 00       	nopl   0x0(%rax,%rax,1)

0000000000002ad0 <_ZN9__gnu_cxx17__normal_iteratorIPNSt7__cxx1112basic_stringIcSt11char_traitsIcESaIcEEESt6vectorIS6_SaIS6_EEEppEv>:
    2ad0:	55                   	push   %rbp
    2ad1:	48 89 e5             	mov    %rsp,%rbp
    2ad4:	48 89 7d f8          	mov    %rdi,-0x8(%rbp)
    2ad8:	48 8b 45 f8          	mov    -0x8(%rbp),%rax
    2adc:	48 8b 08             	mov    (%rax),%rcx
    2adf:	48 83 c1 20          	add    $0x20,%rcx
    2ae3:	48 89 08             	mov    %rcx,(%rax)
    2ae6:	5d                   	pop    %rbp
    2ae7:	c3                   	ret    
    2ae8:	0f 1f 84 00 00 00 00 	nopl   0x0(%rax,%rax,1)
    2aef:	00 

0000000000002af0 <_ZN9__gnu_cxx17__normal_iteratorIP6CSVRowSt6vectorIS1_SaIS1_EEEppEv>:
    2af0:	55                   	push   %rbp
    2af1:	48 89 e5             	mov    %rsp,%rbp
    2af4:	48 89 7d f8          	mov    %rdi,-0x8(%rbp)
    2af8:	48 8b 45 f8          	mov    -0x8(%rbp),%rax
    2afc:	48 8b 08             	mov    (%rax),%rcx
    2aff:	48 83 c1 18          	add    $0x18,%rcx
    2b03:	48 89 08             	mov    %rcx,(%rax)
    2b06:	5d                   	pop    %rbp
    2b07:	c3                   	ret    
    2b08:	0f 1f 84 00 00 00 00 	nopl   0x0(%rax,%rax,1)
    2b0f:	00 

0000000000002b10 <_ZNSt6vectorI6CSVRowSaIS0_EED2Ev>:
    2b10:	55                   	push   %rbp
    2b11:	48 89 e5             	mov    %rsp,%rbp
    2b14:	48 83 ec 30          	sub    $0x30,%rsp
    2b18:	48 89 7d f8          	mov    %rdi,-0x8(%rbp)
    2b1c:	48 8b 7d f8          	mov    -0x8(%rbp),%rdi
    2b20:	48 89 7d d0          	mov    %rdi,-0x30(%rbp)
    2b24:	48 8b 07             	mov    (%rdi),%rax
    2b27:	48 89 45 d8          	mov    %rax,-0x28(%rbp)
    2b2b:	48 8b 47 08          	mov    0x8(%rdi),%rax
    2b2f:	48 89 45 e0          	mov    %rax,-0x20(%rbp)
    2b33:	e8 98 04 00 00       	call   2fd0 <_ZNSt12_Vector_baseI6CSVRowSaIS0_EE19_M_get_Tp_allocatorEv>
    2b38:	48 8b 7d d8          	mov    -0x28(%rbp),%rdi
    2b3c:	48 8b 75 e0          	mov    -0x20(%rbp),%rsi
    2b40:	48 89 c2             	mov    %rax,%rdx
    2b43:	e8 58 04 00 00       	call   2fa0 <_ZSt8_DestroyIP6CSVRowS0_EvT_S2_RSaIT0_E>
    2b48:	e9 00 00 00 00       	jmp    2b4d <_ZNSt6vectorI6CSVRowSaIS0_EED2Ev+0x3d>
    2b4d:	48 8b 7d d0          	mov    -0x30(%rbp),%rdi
    2b51:	e8 8a 04 00 00       	call   2fe0 <_ZNSt12_Vector_baseI6CSVRowSaIS0_EED2Ev>
    2b56:	48 83 c4 30          	add    $0x30,%rsp
    2b5a:	5d                   	pop    %rbp
    2b5b:	c3                   	ret    
    2b5c:	48 8b 7d d0          	mov    -0x30(%rbp),%rdi
    2b60:	48 89 c1             	mov    %rax,%rcx
    2b63:	89 d0                	mov    %edx,%eax
    2b65:	48 89 4d f0          	mov    %rcx,-0x10(%rbp)
    2b69:	89 45 ec             	mov    %eax,-0x14(%rbp)
    2b6c:	e8 6f 04 00 00       	call   2fe0 <_ZNSt12_Vector_baseI6CSVRowSaIS0_EED2Ev>
    2b71:	48 8b 7d f0          	mov    -0x10(%rbp),%rdi
    2b75:	e8 96 02 00 00       	call   2e10 <__clang_call_terminate>
    2b7a:	66 0f 1f 44 00 00    	nopw   0x0(%rax,%rax,1)

0000000000002b80 <_ZNSt12_Vector_baseI6CSVRowSaIS0_EEC2Ev>:
    2b80:	55                   	push   %rbp
    2b81:	48 89 e5             	mov    %rsp,%rbp
    2b84:	48 83 ec 10          	sub    $0x10,%rsp
    2b88:	48 89 7d f8          	mov    %rdi,-0x8(%rbp)
    2b8c:	48 8b 7d f8          	mov    -0x8(%rbp),%rdi
    2b90:	e8 0b 00 00 00       	call   2ba0 <_ZNSt12_Vector_baseI6CSVRowSaIS0_EE12_Vector_implC2Ev>
    2b95:	48 83 c4 10          	add    $0x10,%rsp
    2b99:	5d                   	pop    %rbp
    2b9a:	c3                   	ret    
    2b9b:	0f 1f 44 00 00       	nopl   0x0(%rax,%rax,1)

0000000000002ba0 <_ZNSt12_Vector_baseI6CSVRowSaIS0_EE12_Vector_implC2Ev>:
    2ba0:	55                   	push   %rbp
    2ba1:	48 89 e5             	mov    %rsp,%rbp
    2ba4:	48 83 ec 10          	sub    $0x10,%rsp
    2ba8:	48 89 7d f8          	mov    %rdi,-0x8(%rbp)
    2bac:	48 8b 7d f8          	mov    -0x8(%rbp),%rdi
    2bb0:	48 89 7d f0          	mov    %rdi,-0x10(%rbp)
    2bb4:	e8 17 00 00 00       	call   2bd0 <_ZNSaI6CSVRowEC2Ev>
    2bb9:	48 8b 7d f0          	mov    -0x10(%rbp),%rdi
    2bbd:	e8 2e 00 00 00       	call   2bf0 <_ZNSt12_Vector_baseI6CSVRowSaIS0_EE17_Vector_impl_dataC2Ev>
    2bc2:	48 83 c4 10          	add    $0x10,%rsp
    2bc6:	5d                   	pop    %rbp
    2bc7:	c3                   	ret    
    2bc8:	0f 1f 84 00 00 00 00 	nopl   0x0(%rax,%rax,1)
    2bcf:	00 

0000000000002bd0 <_ZNSaI6CSVRowEC2Ev>:
    2bd0:	55                   	push   %rbp
    2bd1:	48 89 e5             	mov    %rsp,%rbp
    2bd4:	48 83 ec 10          	sub    $0x10,%rsp
    2bd8:	48 89 7d f8          	mov    %rdi,-0x8(%rbp)
    2bdc:	48 8b 7d f8          	mov    -0x8(%rbp),%rdi
    2be0:	e8 3b 00 00 00       	call   2c20 <_ZN9__gnu_cxx13new_allocatorI6CSVRowEC2Ev>
    2be5:	48 83 c4 10          	add    $0x10,%rsp
    2be9:	5d                   	pop    %rbp
    2bea:	c3                   	ret    
    2beb:	0f 1f 44 00 00       	nopl   0x0(%rax,%rax,1)

0000000000002bf0 <_ZNSt12_Vector_baseI6CSVRowSaIS0_EE17_Vector_impl_dataC2Ev>:
    2bf0:	55                   	push   %rbp
    2bf1:	48 89 e5             	mov    %rsp,%rbp
    2bf4:	48 89 7d f8          	mov    %rdi,-0x8(%rbp)
    2bf8:	48 8b 45 f8          	mov    -0x8(%rbp),%rax
    2bfc:	48 c7 00 00 00 00 00 	movq   $0x0,(%rax)
    2c03:	48 c7 40 08 00 00 00 	movq   $0x0,0x8(%rax)
    2c0a:	00 
    2c0b:	48 c7 40 10 00 00 00 	movq   $0x0,0x10(%rax)
    2c12:	00 
    2c13:	5d                   	pop    %rbp
    2c14:	c3                   	ret    
    2c15:	66 2e 0f 1f 84 00 00 	cs nopw 0x0(%rax,%rax,1)
    2c1c:	00 00 00 
    2c1f:	90                   	nop

0000000000002c20 <_ZN9__gnu_cxx13new_allocatorI6CSVRowEC2Ev>:
    2c20:	55                   	push   %rbp
    2c21:	48 89 e5             	mov    %rsp,%rbp
    2c24:	48 89 7d f8          	mov    %rdi,-0x8(%rbp)
    2c28:	5d                   	pop    %rbp
    2c29:	c3                   	ret    
    2c2a:	66 0f 1f 44 00 00    	nopw   0x0(%rax,%rax,1)

0000000000002c30 <_ZNSt6vectorINSt7__cxx1112basic_stringIcSt11char_traitsIcESaIcEEESaIS5_EEC2Ev>:
    2c30:	55                   	push   %rbp
    2c31:	48 89 e5             	mov    %rsp,%rbp
    2c34:	48 83 ec 10          	sub    $0x10,%rsp
    2c38:	48 89 7d f8          	mov    %rdi,-0x8(%rbp)
    2c3c:	48 8b 7d f8          	mov    -0x8(%rbp),%rdi
    2c40:	e8 0b 00 00 00       	call   2c50 <_ZNSt12_Vector_baseINSt7__cxx1112basic_stringIcSt11char_traitsIcESaIcEEESaIS5_EEC2Ev>
    2c45:	48 83 c4 10          	add    $0x10,%rsp
    2c49:	5d                   	pop    %rbp
    2c4a:	c3                   	ret    
    2c4b:	0f 1f 44 00 00       	nopl   0x0(%rax,%rax,1)

0000000000002c50 <_ZNSt12_Vector_baseINSt7__cxx1112basic_stringIcSt11char_traitsIcESaIcEEESaIS5_EEC2Ev>:
    2c50:	55                   	push   %rbp
    2c51:	48 89 e5             	mov    %rsp,%rbp
    2c54:	48 83 ec 10          	sub    $0x10,%rsp
    2c58:	48 89 7d f8          	mov    %rdi,-0x8(%rbp)
    2c5c:	48 8b 7d f8          	mov    -0x8(%rbp),%rdi
    2c60:	e8 0b 00 00 00       	call   2c70 <_ZNSt12_Vector_baseINSt7__cxx1112basic_stringIcSt11char_traitsIcESaIcEEESaIS5_EE12_Vector_implC2Ev>
    2c65:	48 83 c4 10          	add    $0x10,%rsp
    2c69:	5d                   	pop    %rbp
    2c6a:	c3                   	ret    
    2c6b:	0f 1f 44 00 00       	nopl   0x0(%rax,%rax,1)

0000000000002c70 <_ZNSt12_Vector_baseINSt7__cxx1112basic_stringIcSt11char_traitsIcESaIcEEESaIS5_EE12_Vector_implC2Ev>:
    2c70:	55                   	push   %rbp
    2c71:	48 89 e5             	mov    %rsp,%rbp
    2c74:	48 83 ec 10          	sub    $0x10,%rsp
    2c78:	48 89 7d f8          	mov    %rdi,-0x8(%rbp)
    2c7c:	48 8b 7d f8          	mov    -0x8(%rbp),%rdi
    2c80:	48 89 7d f0          	mov    %rdi,-0x10(%rbp)
    2c84:	e8 17 00 00 00       	call   2ca0 <_ZNSaINSt7__cxx1112basic_stringIcSt11char_traitsIcESaIcEEEEC2Ev>
    2c89:	48 8b 7d f0          	mov    -0x10(%rbp),%rdi
    2c8d:	e8 2e 00 00 00       	call   2cc0 <_ZNSt12_Vector_baseINSt7__cxx1112basic_stringIcSt11char_traitsIcESaIcEEESaIS5_EE17_Vector_impl_dataC2Ev>
    2c92:	48 83 c4 10          	add    $0x10,%rsp
    2c96:	5d                   	pop    %rbp
    2c97:	c3                   	ret    
    2c98:	0f 1f 84 00 00 00 00 	nopl   0x0(%rax,%rax,1)
    2c9f:	00 

0000000000002ca0 <_ZNSaINSt7__cxx1112basic_stringIcSt11char_traitsIcESaIcEEEEC2Ev>:
    2ca0:	55                   	push   %rbp
    2ca1:	48 89 e5             	mov    %rsp,%rbp
    2ca4:	48 83 ec 10          	sub    $0x10,%rsp
    2ca8:	48 89 7d f8          	mov    %rdi,-0x8(%rbp)
    2cac:	48 8b 7d f8          	mov    -0x8(%rbp),%rdi
    2cb0:	e8 3b 00 00 00       	call   2cf0 <_ZN9__gnu_cxx13new_allocatorINSt7__cxx1112basic_stringIcSt11char_traitsIcESaIcEEEEC2Ev>
    2cb5:	48 83 c4 10          	add    $0x10,%rsp
    2cb9:	5d                   	pop    %rbp
    2cba:	c3                   	ret    
    2cbb:	0f 1f 44 00 00       	nopl   0x0(%rax,%rax,1)

0000000000002cc0 <_ZNSt12_Vector_baseINSt7__cxx1112basic_stringIcSt11char_traitsIcESaIcEEESaIS5_EE17_Vector_impl_dataC2Ev>:
    2cc0:	55                   	push   %rbp
    2cc1:	48 89 e5             	mov    %rsp,%rbp
    2cc4:	48 89 7d f8          	mov    %rdi,-0x8(%rbp)
    2cc8:	48 8b 45 f8          	mov    -0x8(%rbp),%rax
    2ccc:	48 c7 00 00 00 00 00 	movq   $0x0,(%rax)
    2cd3:	48 c7 40 08 00 00 00 	movq   $0x0,0x8(%rax)
    2cda:	00 
    2cdb:	48 c7 40 10 00 00 00 	movq   $0x0,0x10(%rax)
    2ce2:	00 
    2ce3:	5d                   	pop    %rbp
    2ce4:	c3                   	ret    
    2ce5:	66 2e 0f 1f 84 00 00 	cs nopw 0x0(%rax,%rax,1)
    2cec:	00 00 00 
    2cef:	90                   	nop

0000000000002cf0 <_ZN9__gnu_cxx13new_allocatorINSt7__cxx1112basic_stringIcSt11char_traitsIcESaIcEEEEC2Ev>:
    2cf0:	55                   	push   %rbp
    2cf1:	48 89 e5             	mov    %rsp,%rbp
    2cf4:	48 89 7d f8          	mov    %rdi,-0x8(%rbp)
    2cf8:	5d                   	pop    %rbp
    2cf9:	c3                   	ret    
    2cfa:	66 0f 1f 44 00 00    	nopw   0x0(%rax,%rax,1)

0000000000002d00 <_ZNSt6vectorINSt7__cxx1112basic_stringIcSt11char_traitsIcESaIcEEESaIS5_EED2Ev>:
    2d00:	55                   	push   %rbp
    2d01:	48 89 e5             	mov    %rsp,%rbp
    2d04:	48 83 ec 30          	sub    $0x30,%rsp
    2d08:	48 89 7d f8          	mov    %rdi,-0x8(%rbp)
    2d0c:	48 8b 7d f8          	mov    -0x8(%rbp),%rdi
    2d10:	48 89 7d d0          	mov    %rdi,-0x30(%rbp)
    2d14:	48 8b 07             	mov    (%rdi),%rax
    2d17:	48 89 45 d8          	mov    %rax,-0x28(%rbp)
    2d1b:	48 8b 47 08          	mov    0x8(%rdi),%rax
    2d1f:	48 89 45 e0          	mov    %rax,-0x20(%rbp)
    2d23:	e8 78 00 00 00       	call   2da0 <_ZNSt12_Vector_baseINSt7__cxx1112basic_stringIcSt11char_traitsIcESaIcEEESaIS5_EE19_M_get_Tp_allocatorEv>
    2d28:	48 8b 7d d8          	mov    -0x28(%rbp),%rdi
    2d2c:	48 8b 75 e0          	mov    -0x20(%rbp),%rsi
    2d30:	48 89 c2             	mov    %rax,%rdx
    2d33:	e8 38 00 00 00       	call   2d70 <_ZSt8_DestroyIPNSt7__cxx1112basic_stringIcSt11char_traitsIcESaIcEEES5_EvT_S7_RSaIT0_E>
    2d38:	e9 00 00 00 00       	jmp    2d3d <_ZNSt6vectorINSt7__cxx1112basic_stringIcSt11char_traitsIcESaIcEEESaIS5_EED2Ev+0x3d>
    2d3d:	48 8b 7d d0          	mov    -0x30(%rbp),%rdi
    2d41:	e8 6a 00 00 00       	call   2db0 <_ZNSt12_Vector_baseINSt7__cxx1112basic_stringIcSt11char_traitsIcESaIcEEESaIS5_EED2Ev>
    2d46:	48 83 c4 30          	add    $0x30,%rsp
    2d4a:	5d                   	pop    %rbp
    2d4b:	c3                   	ret    
    2d4c:	48 8b 7d d0          	mov    -0x30(%rbp),%rdi
    2d50:	48 89 c1             	mov    %rax,%rcx
    2d53:	89 d0                	mov    %edx,%eax
    2d55:	48 89 4d f0          	mov    %rcx,-0x10(%rbp)
    2d59:	89 45 ec             	mov    %eax,-0x14(%rbp)
    2d5c:	e8 4f 00 00 00       	call   2db0 <_ZNSt12_Vector_baseINSt7__cxx1112basic_stringIcSt11char_traitsIcESaIcEEESaIS5_EED2Ev>
    2d61:	48 8b 7d f0          	mov    -0x10(%rbp),%rdi
    2d65:	e8 a6 00 00 00       	call   2e10 <__clang_call_terminate>
    2d6a:	66 0f 1f 44 00 00    	nopw   0x0(%rax,%rax,1)

0000000000002d70 <_ZSt8_DestroyIPNSt7__cxx1112basic_stringIcSt11char_traitsIcESaIcEEES5_EvT_S7_RSaIT0_E>:
    2d70:	55                   	push   %rbp
    2d71:	48 89 e5             	mov    %rsp,%rbp
    2d74:	48 83 ec 20          	sub    $0x20,%rsp
    2d78:	48 89 7d f8          	mov    %rdi,-0x8(%rbp)
    2d7c:	48 89 75 f0          	mov    %rsi,-0x10(%rbp)
    2d80:	48 89 55 e8          	mov    %rdx,-0x18(%rbp)
    2d84:	48 8b 7d f8          	mov    -0x8(%rbp),%rdi
    2d88:	48 8b 75 f0          	mov    -0x10(%rbp),%rsi
    2d8c:	e8 8f 00 00 00       	call   2e20 <_ZSt8_DestroyIPNSt7__cxx1112basic_stringIcSt11char_traitsIcESaIcEEEEvT_S7_>
    2d91:	48 83 c4 20          	add    $0x20,%rsp
    2d95:	5d                   	pop    %rbp
    2d96:	c3                   	ret    
    2d97:	66 0f 1f 84 00 00 00 	nopw   0x0(%rax,%rax,1)
    2d9e:	00 00 

0000000000002da0 <_ZNSt12_Vector_baseINSt7__cxx1112basic_stringIcSt11char_traitsIcESaIcEEESaIS5_EE19_M_get_Tp_allocatorEv>:
    2da0:	55                   	push   %rbp
    2da1:	48 89 e5             	mov    %rsp,%rbp
    2da4:	48 89 7d f8          	mov    %rdi,-0x8(%rbp)
    2da8:	48 8b 45 f8          	mov    -0x8(%rbp),%rax
    2dac:	5d                   	pop    %rbp
    2dad:	c3                   	ret    
    2dae:	66 90                	xchg   %ax,%ax

0000000000002db0 <_ZNSt12_Vector_baseINSt7__cxx1112basic_stringIcSt11char_traitsIcESaIcEEESaIS5_EED2Ev>:
    2db0:	55                   	push   %rbp
    2db1:	48 89 e5             	mov    %rsp,%rbp
    2db4:	48 83 ec 20          	sub    $0x20,%rsp
    2db8:	48 89 7d f8          	mov    %rdi,-0x8(%rbp)
    2dbc:	48 8b 7d f8          	mov    -0x8(%rbp),%rdi
    2dc0:	48 89 7d e0          	mov    %rdi,-0x20(%rbp)
    2dc4:	48 8b 37             	mov    (%rdi),%rsi
    2dc7:	48 8b 57 10          	mov    0x10(%rdi),%rdx
    2dcb:	48 29 f2             	sub    %rsi,%rdx
    2dce:	48 c1 fa 05          	sar    $0x5,%rdx
    2dd2:	e8 f9 00 00 00       	call   2ed0 <_ZNSt12_Vector_baseINSt7__cxx1112basic_stringIcSt11char_traitsIcESaIcEEESaIS5_EE13_M_deallocateEPS5_m>
    2dd7:	e9 00 00 00 00       	jmp    2ddc <_ZNSt12_Vector_baseINSt7__cxx1112basic_stringIcSt11char_traitsIcESaIcEEESaIS5_EED2Ev+0x2c>
    2ddc:	48 8b 7d e0          	mov    -0x20(%rbp),%rdi
    2de0:	e8 2b 01 00 00       	call   2f10 <_ZNSt12_Vector_baseINSt7__cxx1112basic_stringIcSt11char_traitsIcESaIcEEESaIS5_EE12_Vector_implD2Ev>
    2de5:	48 83 c4 20          	add    $0x20,%rsp
    2de9:	5d                   	pop    %rbp
    2dea:	c3                   	ret    
    2deb:	48 8b 7d e0          	mov    -0x20(%rbp),%rdi
    2def:	48 89 c1             	mov    %rax,%rcx
    2df2:	89 d0                	mov    %edx,%eax
    2df4:	48 89 4d f0          	mov    %rcx,-0x10(%rbp)
    2df8:	89 45 ec             	mov    %eax,-0x14(%rbp)
    2dfb:	e8 10 01 00 00       	call   2f10 <_ZNSt12_Vector_baseINSt7__cxx1112basic_stringIcSt11char_traitsIcESaIcEEESaIS5_EE12_Vector_implD2Ev>
    2e00:	48 8b 7d f0          	mov    -0x10(%rbp),%rdi
    2e04:	e8 07 00 00 00       	call   2e10 <__clang_call_terminate>
    2e09:	0f 1f 80 00 00 00 00 	nopl   0x0(%rax)

0000000000002e10 <__clang_call_terminate>:
    2e10:	50                   	push   %rax
    2e11:	e8 5a f2 ff ff       	call   2070 <__cxa_begin_catch@plt>
    2e16:	e8 35 f2 ff ff       	call   2050 <_ZSt9terminatev@plt>
    2e1b:	0f 1f 44 00 00       	nopl   0x0(%rax,%rax,1)

0000000000002e20 <_ZSt8_DestroyIPNSt7__cxx1112basic_stringIcSt11char_traitsIcESaIcEEEEvT_S7_>:
    2e20:	55                   	push   %rbp
    2e21:	48 89 e5             	mov    %rsp,%rbp
    2e24:	48 83 ec 10          	sub    $0x10,%rsp
    2e28:	48 89 7d f8          	mov    %rdi,-0x8(%rbp)
    2e2c:	48 89 75 f0          	mov    %rsi,-0x10(%rbp)
    2e30:	48 8b 7d f8          	mov    -0x8(%rbp),%rdi
    2e34:	48 8b 75 f0          	mov    -0x10(%rbp),%rsi
    2e38:	e8 13 00 00 00       	call   2e50 <_ZNSt12_Destroy_auxILb0EE9__destroyIPNSt7__cxx1112basic_stringIcSt11char_traitsIcESaIcEEEEEvT_S9_>
    2e3d:	48 83 c4 10          	add    $0x10,%rsp
    2e41:	5d                   	pop    %rbp
    2e42:	c3                   	ret    
    2e43:	66 2e 0f 1f 84 00 00 	cs nopw 0x0(%rax,%rax,1)
    2e4a:	00 00 00 
    2e4d:	0f 1f 00             	nopl   (%rax)

0000000000002e50 <_ZNSt12_Destroy_auxILb0EE9__destroyIPNSt7__cxx1112basic_stringIcSt11char_traitsIcESaIcEEEEEvT_S9_>:
    2e50:	55                   	push   %rbp
    2e51:	48 89 e5             	mov    %rsp,%rbp
    2e54:	48 83 ec 10          	sub    $0x10,%rsp
    2e58:	48 89 7d f8          	mov    %rdi,-0x8(%rbp)
    2e5c:	48 89 75 f0          	mov    %rsi,-0x10(%rbp)
    2e60:	48 8b 45 f8          	mov    -0x8(%rbp),%rax
    2e64:	48 3b 45 f0          	cmp    -0x10(%rbp),%rax
    2e68:	0f 84 22 00 00 00    	je     2e90 <_ZNSt12_Destroy_auxILb0EE9__destroyIPNSt7__cxx1112basic_stringIcSt11char_traitsIcESaIcEEEEEvT_S9_+0x40>
    2e6e:	48 8b 7d f8          	mov    -0x8(%rbp),%rdi
    2e72:	e8 49 00 00 00       	call   2ec0 <_ZSt11__addressofINSt7__cxx1112basic_stringIcSt11char_traitsIcESaIcEEEEPT_RS6_>
    2e77:	48 89 c7             	mov    %rax,%rdi
    2e7a:	e8 21 00 00 00       	call   2ea0 <_ZSt8_DestroyINSt7__cxx1112basic_stringIcSt11char_traitsIcESaIcEEEEvPT_>
    2e7f:	48 8b 45 f8          	mov    -0x8(%rbp),%rax
    2e83:	48 83 c0 20          	add    $0x20,%rax
    2e87:	48 89 45 f8          	mov    %rax,-0x8(%rbp)
    2e8b:	e9 d0 ff ff ff       	jmp    2e60 <_ZNSt12_Destroy_auxILb0EE9__destroyIPNSt7__cxx1112basic_stringIcSt11char_traitsIcESaIcEEEEEvT_S9_+0x10>
    2e90:	48 83 c4 10          	add    $0x10,%rsp
    2e94:	5d                   	pop    %rbp
    2e95:	c3                   	ret    
    2e96:	66 2e 0f 1f 84 00 00 	cs nopw 0x0(%rax,%rax,1)
    2e9d:	00 00 00 

0000000000002ea0 <_ZSt8_DestroyINSt7__cxx1112basic_stringIcSt11char_traitsIcESaIcEEEEvPT_>:
    2ea0:	55                   	push   %rbp
    2ea1:	48 89 e5             	mov    %rsp,%rbp
    2ea4:	48 83 ec 10          	sub    $0x10,%rsp
    2ea8:	48 89 7d f8          	mov    %rdi,-0x8(%rbp)
    2eac:	48 8b 7d f8          	mov    -0x8(%rbp),%rdi
    2eb0:	e8 fb f1 ff ff       	call   20b0 <_ZNSt7__cxx1112basic_stringIcSt11char_traitsIcESaIcEED1Ev@plt>
    2eb5:	48 83 c4 10          	add    $0x10,%rsp
    2eb9:	5d                   	pop    %rbp
    2eba:	c3                   	ret    
    2ebb:	0f 1f 44 00 00       	nopl   0x0(%rax,%rax,1)

0000000000002ec0 <_ZSt11__addressofINSt7__cxx1112basic_stringIcSt11char_traitsIcESaIcEEEEPT_RS6_>:
    2ec0:	55                   	push   %rbp
    2ec1:	48 89 e5             	mov    %rsp,%rbp
    2ec4:	48 89 7d f8          	mov    %rdi,-0x8(%rbp)
    2ec8:	48 8b 45 f8          	mov    -0x8(%rbp),%rax
    2ecc:	5d                   	pop    %rbp
    2ecd:	c3                   	ret    
    2ece:	66 90                	xchg   %ax,%ax

0000000000002ed0 <_ZNSt12_Vector_baseINSt7__cxx1112basic_stringIcSt11char_traitsIcESaIcEEESaIS5_EE13_M_deallocateEPS5_m>:
    2ed0:	55                   	push   %rbp
    2ed1:	48 89 e5             	mov    %rsp,%rbp
    2ed4:	48 83 ec 20          	sub    $0x20,%rsp
    2ed8:	48 89 7d f8          	mov    %rdi,-0x8(%rbp)
    2edc:	48 89 75 f0          	mov    %rsi,-0x10(%rbp)
    2ee0:	48 89 55 e8          	mov    %rdx,-0x18(%rbp)
    2ee4:	48 8b 45 f8          	mov    -0x8(%rbp),%rax
    2ee8:	48 89 45 e0          	mov    %rax,-0x20(%rbp)
    2eec:	48 83 7d f0 00       	cmpq   $0x0,-0x10(%rbp)
    2ef1:	0f 84 11 00 00 00    	je     2f08 <_ZNSt12_Vector_baseINSt7__cxx1112basic_stringIcSt11char_traitsIcESaIcEEESaIS5_EE13_M_deallocateEPS5_m+0x38>
    2ef7:	48 8b 7d e0          	mov    -0x20(%rbp),%rdi
    2efb:	48 8b 75 f0          	mov    -0x10(%rbp),%rsi
    2eff:	48 8b 55 e8          	mov    -0x18(%rbp),%rdx
    2f03:	e8 28 00 00 00       	call   2f30 <_ZNSt16allocator_traitsISaINSt7__cxx1112basic_stringIcSt11char_traitsIcESaIcEEEEE10deallocateERS6_PS5_m>
    2f08:	48 83 c4 20          	add    $0x20,%rsp
    2f0c:	5d                   	pop    %rbp
    2f0d:	c3                   	ret    
    2f0e:	66 90                	xchg   %ax,%ax

0000000000002f10 <_ZNSt12_Vector_baseINSt7__cxx1112basic_stringIcSt11char_traitsIcESaIcEEESaIS5_EE12_Vector_implD2Ev>:
    2f10:	55                   	push   %rbp
    2f11:	48 89 e5             	mov    %rsp,%rbp
    2f14:	48 83 ec 10          	sub    $0x10,%rsp
    2f18:	48 89 7d f8          	mov    %rdi,-0x8(%rbp)
    2f1c:	48 8b 7d f8          	mov    -0x8(%rbp),%rdi
    2f20:	e8 5b 11 00 00       	call   4080 <_ZNSaINSt7__cxx1112basic_stringIcSt11char_traitsIcESaIcEEEED2Ev>
    2f25:	48 83 c4 10          	add    $0x10,%rsp
    2f29:	5d                   	pop    %rbp
    2f2a:	c3                   	ret    
    2f2b:	0f 1f 44 00 00       	nopl   0x0(%rax,%rax,1)

0000000000002f30 <_ZNSt16allocator_traitsISaINSt7__cxx1112basic_stringIcSt11char_traitsIcESaIcEEEEE10deallocateERS6_PS5_m>:
    2f30:	55                   	push   %rbp
    2f31:	48 89 e5             	mov    %rsp,%rbp
    2f34:	48 83 ec 20          	sub    $0x20,%rsp
    2f38:	48 89 7d f8          	mov    %rdi,-0x8(%rbp)
    2f3c:	48 89 75 f0          	mov    %rsi,-0x10(%rbp)
    2f40:	48 89 55 e8          	mov    %rdx,-0x18(%rbp)
    2f44:	48 8b 7d f8          	mov    -0x8(%rbp),%rdi
    2f48:	48 8b 75 f0          	mov    -0x10(%rbp),%rsi
    2f4c:	48 8b 55 e8          	mov    -0x18(%rbp),%rdx
    2f50:	e8 0b 00 00 00       	call   2f60 <_ZN9__gnu_cxx13new_allocatorINSt7__cxx1112basic_stringIcSt11char_traitsIcESaIcEEEE10deallocateEPS6_m>
    2f55:	48 83 c4 20          	add    $0x20,%rsp
    2f59:	5d                   	pop    %rbp
    2f5a:	c3                   	ret    
    2f5b:	0f 1f 44 00 00       	nopl   0x0(%rax,%rax,1)

0000000000002f60 <_ZN9__gnu_cxx13new_allocatorINSt7__cxx1112basic_stringIcSt11char_traitsIcESaIcEEEE10deallocateEPS6_m>:
    2f60:	55                   	push   %rbp
    2f61:	48 89 e5             	mov    %rsp,%rbp
    2f64:	48 83 ec 20          	sub    $0x20,%rsp
    2f68:	48 89 7d f8          	mov    %rdi,-0x8(%rbp)
    2f6c:	48 89 75 f0          	mov    %rsi,-0x10(%rbp)
    2f70:	48 89 55 e8          	mov    %rdx,-0x18(%rbp)
    2f74:	48 8b 7d f0          	mov    -0x10(%rbp),%rdi
    2f78:	e8 83 f1 ff ff       	call   2100 <_ZdlPv@plt>
    2f7d:	48 83 c4 20          	add    $0x20,%rsp
    2f81:	5d                   	pop    %rbp
    2f82:	c3                   	ret    
    2f83:	66 2e 0f 1f 84 00 00 	cs nopw 0x0(%rax,%rax,1)
    2f8a:	00 00 00 
    2f8d:	0f 1f 00             	nopl   (%rax)

0000000000002f90 <_ZN9__gnu_cxx13new_allocatorINSt7__cxx1112basic_stringIcSt11char_traitsIcESaIcEEEED2Ev>:
    2f90:	55                   	push   %rbp
    2f91:	48 89 e5             	mov    %rsp,%rbp
    2f94:	48 89 7d f8          	mov    %rdi,-0x8(%rbp)
    2f98:	5d                   	pop    %rbp
    2f99:	c3                   	ret    
    2f9a:	66 0f 1f 44 00 00    	nopw   0x0(%rax,%rax,1)

0000000000002fa0 <_ZSt8_DestroyIP6CSVRowS0_EvT_S2_RSaIT0_E>:
    2fa0:	55                   	push   %rbp
    2fa1:	48 89 e5             	mov    %rsp,%rbp
    2fa4:	48 83 ec 20          	sub    $0x20,%rsp
    2fa8:	48 89 7d f8          	mov    %rdi,-0x8(%rbp)
    2fac:	48 89 75 f0          	mov    %rsi,-0x10(%rbp)
    2fb0:	48 89 55 e8          	mov    %rdx,-0x18(%rbp)
    2fb4:	48 8b 7d f8          	mov    -0x8(%rbp),%rdi
    2fb8:	48 8b 75 f0          	mov    -0x10(%rbp),%rsi
    2fbc:	e8 8f 00 00 00       	call   3050 <_ZSt8_DestroyIP6CSVRowEvT_S2_>
    2fc1:	48 83 c4 20          	add    $0x20,%rsp
    2fc5:	5d                   	pop    %rbp
    2fc6:	c3                   	ret    
    2fc7:	66 0f 1f 84 00 00 00 	nopw   0x0(%rax,%rax,1)
    2fce:	00 00 

0000000000002fd0 <_ZNSt12_Vector_baseI6CSVRowSaIS0_EE19_M_get_Tp_allocatorEv>:
    2fd0:	55                   	push   %rbp
    2fd1:	48 89 e5             	mov    %rsp,%rbp
    2fd4:	48 89 7d f8          	mov    %rdi,-0x8(%rbp)
    2fd8:	48 8b 45 f8          	mov    -0x8(%rbp),%rax
    2fdc:	5d                   	pop    %rbp
    2fdd:	c3                   	ret    
    2fde:	66 90                	xchg   %ax,%ax

0000000000002fe0 <_ZNSt12_Vector_baseI6CSVRowSaIS0_EED2Ev>:
    2fe0:	55                   	push   %rbp
    2fe1:	48 89 e5             	mov    %rsp,%rbp
    2fe4:	48 83 ec 20          	sub    $0x20,%rsp
    2fe8:	48 89 7d f8          	mov    %rdi,-0x8(%rbp)
    2fec:	48 8b 7d f8          	mov    -0x8(%rbp),%rdi
    2ff0:	48 89 7d e0          	mov    %rdi,-0x20(%rbp)
    2ff4:	48 8b 37             	mov    (%rdi),%rsi
    2ff7:	48 8b 57 10          	mov    0x10(%rdi),%rdx
    2ffb:	48 29 f2             	sub    %rsi,%rdx
    2ffe:	48 c1 fa 03          	sar    $0x3,%rdx
    3002:	48 b8 ab aa aa aa aa 	movabs $0xaaaaaaaaaaaaaaab,%rax
    3009:	aa aa aa 
    300c:	48 0f af d0          	imul   %rax,%rdx
    3010:	e8 eb 00 00 00       	call   3100 <_ZNSt12_Vector_baseI6CSVRowSaIS0_EE13_M_deallocateEPS0_m>
    3015:	e9 00 00 00 00       	jmp    301a <_ZNSt12_Vector_baseI6CSVRowSaIS0_EED2Ev+0x3a>
    301a:	48 8b 7d e0          	mov    -0x20(%rbp),%rdi
    301e:	e8 1d 01 00 00       	call   3140 <_ZNSt12_Vector_baseI6CSVRowSaIS0_EE12_Vector_implD2Ev>
    3023:	48 83 c4 20          	add    $0x20,%rsp
    3027:	5d                   	pop    %rbp
    3028:	c3                   	ret    
    3029:	48 8b 7d e0          	mov    -0x20(%rbp),%rdi
    302d:	48 89 c1             	mov    %rax,%rcx
    3030:	89 d0                	mov    %edx,%eax
    3032:	48 89 4d f0          	mov    %rcx,-0x10(%rbp)
    3036:	89 45 ec             	mov    %eax,-0x14(%rbp)
    3039:	e8 02 01 00 00       	call   3140 <_ZNSt12_Vector_baseI6CSVRowSaIS0_EE12_Vector_implD2Ev>
    303e:	48 8b 7d f0          	mov    -0x10(%rbp),%rdi
    3042:	e8 c9 fd ff ff       	call   2e10 <__clang_call_terminate>
    3047:	66 0f 1f 84 00 00 00 	nopw   0x0(%rax,%rax,1)
    304e:	00 00 

0000000000003050 <_ZSt8_DestroyIP6CSVRowEvT_S2_>:
    3050:	55                   	push   %rbp
    3051:	48 89 e5             	mov    %rsp,%rbp
    3054:	48 83 ec 10          	sub    $0x10,%rsp
    3058:	48 89 7d f8          	mov    %rdi,-0x8(%rbp)
    305c:	48 89 75 f0          	mov    %rsi,-0x10(%rbp)
    3060:	48 8b 7d f8          	mov    -0x8(%rbp),%rdi
    3064:	48 8b 75 f0          	mov    -0x10(%rbp),%rsi
    3068:	e8 13 00 00 00       	call   3080 <_ZNSt12_Destroy_auxILb0EE9__destroyIP6CSVRowEEvT_S4_>
    306d:	48 83 c4 10          	add    $0x10,%rsp
    3071:	5d                   	pop    %rbp
    3072:	c3                   	ret    
    3073:	66 2e 0f 1f 84 00 00 	cs nopw 0x0(%rax,%rax,1)
    307a:	00 00 00 
    307d:	0f 1f 00             	nopl   (%rax)

0000000000003080 <_ZNSt12_Destroy_auxILb0EE9__destroyIP6CSVRowEEvT_S4_>:
    3080:	55                   	push   %rbp
    3081:	48 89 e5             	mov    %rsp,%rbp
    3084:	48 83 ec 10          	sub    $0x10,%rsp
    3088:	48 89 7d f8          	mov    %rdi,-0x8(%rbp)
    308c:	48 89 75 f0          	mov    %rsi,-0x10(%rbp)
    3090:	48 8b 45 f8          	mov    -0x8(%rbp),%rax
    3094:	48 3b 45 f0          	cmp    -0x10(%rbp),%rax
    3098:	0f 84 22 00 00 00    	je     30c0 <_ZNSt12_Destroy_auxILb0EE9__destroyIP6CSVRowEEvT_S4_+0x40>
    309e:	48 8b 7d f8          	mov    -0x8(%rbp),%rdi
    30a2:	e8 49 00 00 00       	call   30f0 <_ZSt11__addressofI6CSVRowEPT_RS1_>
    30a7:	48 89 c7             	mov    %rax,%rdi
    30aa:	e8 21 00 00 00       	call   30d0 <_ZSt8_DestroyI6CSVRowEvPT_>
    30af:	48 8b 45 f8          	mov    -0x8(%rbp),%rax
    30b3:	48 83 c0 18          	add    $0x18,%rax
    30b7:	48 89 45 f8          	mov    %rax,-0x8(%rbp)
    30bb:	e9 d0 ff ff ff       	jmp    3090 <_ZNSt12_Destroy_auxILb0EE9__destroyIP6CSVRowEEvT_S4_+0x10>
    30c0:	48 83 c4 10          	add    $0x10,%rsp
    30c4:	5d                   	pop    %rbp
    30c5:	c3                   	ret    
    30c6:	66 2e 0f 1f 84 00 00 	cs nopw 0x0(%rax,%rax,1)
    30cd:	00 00 00 

00000000000030d0 <_ZSt8_DestroyI6CSVRowEvPT_>:
    30d0:	55                   	push   %rbp
    30d1:	48 89 e5             	mov    %rsp,%rbp
    30d4:	48 83 ec 10          	sub    $0x10,%rsp
    30d8:	48 89 7d f8          	mov    %rdi,-0x8(%rbp)
    30dc:	48 8b 7d f8          	mov    -0x8(%rbp),%rdi
    30e0:	e8 2b f8 ff ff       	call   2910 <_ZN6CSVRowD2Ev>
    30e5:	48 83 c4 10          	add    $0x10,%rsp
    30e9:	5d                   	pop    %rbp
    30ea:	c3                   	ret    
    30eb:	0f 1f 44 00 00       	nopl   0x0(%rax,%rax,1)

00000000000030f0 <_ZSt11__addressofI6CSVRowEPT_RS1_>:
    30f0:	55                   	push   %rbp
    30f1:	48 89 e5             	mov    %rsp,%rbp
    30f4:	48 89 7d f8          	mov    %rdi,-0x8(%rbp)
    30f8:	48 8b 45 f8          	mov    -0x8(%rbp),%rax
    30fc:	5d                   	pop    %rbp
    30fd:	c3                   	ret    
    30fe:	66 90                	xchg   %ax,%ax

0000000000003100 <_ZNSt12_Vector_baseI6CSVRowSaIS0_EE13_M_deallocateEPS0_m>:
    3100:	55                   	push   %rbp
    3101:	48 89 e5             	mov    %rsp,%rbp
    3104:	48 83 ec 20          	sub    $0x20,%rsp
    3108:	48 89 7d f8          	mov    %rdi,-0x8(%rbp)
    310c:	48 89 75 f0          	mov    %rsi,-0x10(%rbp)
    3110:	48 89 55 e8          	mov    %rdx,-0x18(%rbp)
    3114:	48 8b 45 f8          	mov    -0x8(%rbp),%rax
    3118:	48 89 45 e0          	mov    %rax,-0x20(%rbp)
    311c:	48 83 7d f0 00       	cmpq   $0x0,-0x10(%rbp)
    3121:	0f 84 11 00 00 00    	je     3138 <_ZNSt12_Vector_baseI6CSVRowSaIS0_EE13_M_deallocateEPS0_m+0x38>
    3127:	48 8b 7d e0          	mov    -0x20(%rbp),%rdi
    312b:	48 8b 75 f0          	mov    -0x10(%rbp),%rsi
    312f:	48 8b 55 e8          	mov    -0x18(%rbp),%rdx
    3133:	e8 28 00 00 00       	call   3160 <_ZNSt16allocator_traitsISaI6CSVRowEE10deallocateERS1_PS0_m>
    3138:	48 83 c4 20          	add    $0x20,%rsp
    313c:	5d                   	pop    %rbp
    313d:	c3                   	ret    
    313e:	66 90                	xchg   %ax,%ax

0000000000003140 <_ZNSt12_Vector_baseI6CSVRowSaIS0_EE12_Vector_implD2Ev>:
    3140:	55                   	push   %rbp
    3141:	48 89 e5             	mov    %rsp,%rbp
    3144:	48 83 ec 10          	sub    $0x10,%rsp
    3148:	48 89 7d f8          	mov    %rdi,-0x8(%rbp)
    314c:	48 8b 7d f8          	mov    -0x8(%rbp),%rdi
    3150:	e8 6b 00 00 00       	call   31c0 <_ZNSaI6CSVRowED2Ev>
    3155:	48 83 c4 10          	add    $0x10,%rsp
    3159:	5d                   	pop    %rbp
    315a:	c3                   	ret    
    315b:	0f 1f 44 00 00       	nopl   0x0(%rax,%rax,1)

0000000000003160 <_ZNSt16allocator_traitsISaI6CSVRowEE10deallocateERS1_PS0_m>:
    3160:	55                   	push   %rbp
    3161:	48 89 e5             	mov    %rsp,%rbp
    3164:	48 83 ec 20          	sub    $0x20,%rsp
    3168:	48 89 7d f8          	mov    %rdi,-0x8(%rbp)
    316c:	48 89 75 f0          	mov    %rsi,-0x10(%rbp)
    3170:	48 89 55 e8          	mov    %rdx,-0x18(%rbp)
    3174:	48 8b 7d f8          	mov    -0x8(%rbp),%rdi
    3178:	48 8b 75 f0          	mov    -0x10(%rbp),%rsi
    317c:	48 8b 55 e8          	mov    -0x18(%rbp),%rdx
    3180:	e8 0b 00 00 00       	call   3190 <_ZN9__gnu_cxx13new_allocatorI6CSVRowE10deallocateEPS1_m>
    3185:	48 83 c4 20          	add    $0x20,%rsp
    3189:	5d                   	pop    %rbp
    318a:	c3                   	ret    
    318b:	0f 1f 44 00 00       	nopl   0x0(%rax,%rax,1)

0000000000003190 <_ZN9__gnu_cxx13new_allocatorI6CSVRowE10deallocateEPS1_m>:
    3190:	55                   	push   %rbp
    3191:	48 89 e5             	mov    %rsp,%rbp
    3194:	48 83 ec 20          	sub    $0x20,%rsp
    3198:	48 89 7d f8          	mov    %rdi,-0x8(%rbp)
    319c:	48 89 75 f0          	mov    %rsi,-0x10(%rbp)
    31a0:	48 89 55 e8          	mov    %rdx,-0x18(%rbp)
    31a4:	48 8b 7d f0          	mov    -0x10(%rbp),%rdi
    31a8:	e8 53 ef ff ff       	call   2100 <_ZdlPv@plt>
    31ad:	48 83 c4 20          	add    $0x20,%rsp
    31b1:	5d                   	pop    %rbp
    31b2:	c3                   	ret    
    31b3:	66 2e 0f 1f 84 00 00 	cs nopw 0x0(%rax,%rax,1)
    31ba:	00 00 00 
    31bd:	0f 1f 00             	nopl   (%rax)

00000000000031c0 <_ZNSaI6CSVRowED2Ev>:
    31c0:	55                   	push   %rbp
    31c1:	48 89 e5             	mov    %rsp,%rbp
    31c4:	48 83 ec 10          	sub    $0x10,%rsp
    31c8:	48 89 7d f8          	mov    %rdi,-0x8(%rbp)
    31cc:	48 8b 7d f8          	mov    -0x8(%rbp),%rdi
    31d0:	e8 0b 00 00 00       	call   31e0 <_ZN9__gnu_cxx13new_allocatorI6CSVRowED2Ev>
    31d5:	48 83 c4 10          	add    $0x10,%rsp
    31d9:	5d                   	pop    %rbp
    31da:	c3                   	ret    
    31db:	0f 1f 44 00 00       	nopl   0x0(%rax,%rax,1)

00000000000031e0 <_ZN9__gnu_cxx13new_allocatorI6CSVRowED2Ev>:
    31e0:	55                   	push   %rbp
    31e1:	48 89 e5             	mov    %rsp,%rbp
    31e4:	48 89 7d f8          	mov    %rdi,-0x8(%rbp)
    31e8:	5d                   	pop    %rbp
    31e9:	c3                   	ret    
    31ea:	66 0f 1f 44 00 00    	nopw   0x0(%rax,%rax,1)

00000000000031f0 <_ZNSt16allocator_traitsISaINSt7__cxx1112basic_stringIcSt11char_traitsIcESaIcEEEEE9constructIS5_JRKS5_EEEvRS6_PT_DpOT0_>:
    31f0:	55                   	push   %rbp
    31f1:	48 89 e5             	mov    %rsp,%rbp
    31f4:	48 83 ec 30          	sub    $0x30,%rsp
    31f8:	48 89 7d f8          	mov    %rdi,-0x8(%rbp)
    31fc:	48 89 75 f0          	mov    %rsi,-0x10(%rbp)
    3200:	48 89 55 e8          	mov    %rdx,-0x18(%rbp)
    3204:	48 8b 45 f8          	mov    -0x8(%rbp),%rax
    3208:	48 89 45 d8          	mov    %rax,-0x28(%rbp)
    320c:	48 8b 45 f0          	mov    -0x10(%rbp),%rax
    3210:	48 89 45 e0          	mov    %rax,-0x20(%rbp)
    3214:	48 8b 7d e8          	mov    -0x18(%rbp),%rdi
    3218:	e8 e3 02 00 00       	call   3500 <_ZSt7forwardIRKNSt7__cxx1112basic_stringIcSt11char_traitsIcESaIcEEEEOT_RNSt16remove_referenceIS8_E4typeE>
    321d:	48 8b 7d d8          	mov    -0x28(%rbp),%rdi
    3221:	48 8b 75 e0          	mov    -0x20(%rbp),%rsi
    3225:	48 89 c2             	mov    %rax,%rdx
    3228:	e8 93 02 00 00       	call   34c0 <_ZN9__gnu_cxx13new_allocatorINSt7__cxx1112basic_stringIcSt11char_traitsIcESaIcEEEE9constructIS6_JRKS6_EEEvPT_DpOT0_>
    322d:	48 83 c4 30          	add    $0x30,%rsp
    3231:	5d                   	pop    %rbp
    3232:	c3                   	ret    
    3233:	66 2e 0f 1f 84 00 00 	cs nopw 0x0(%rax,%rax,1)
    323a:	00 00 00 
    323d:	0f 1f 00             	nopl   (%rax)

0000000000003240 <_ZNSt6vectorINSt7__cxx1112basic_stringIcSt11char_traitsIcESaIcEEESaIS5_EE17_M_realloc_insertIJRKS5_EEEvN9__gnu_cxx17__normal_iteratorIPS5_S7_EEDpOT_>:
    3240:	55                   	push   %rbp
    3241:	48 89 e5             	mov    %rsp,%rbp
    3244:	48 81 ec b0 00 00 00 	sub    $0xb0,%rsp
    324b:	48 89 75 f8          	mov    %rsi,-0x8(%rbp)
    324f:	48 89 7d f0          	mov    %rdi,-0x10(%rbp)
    3253:	48 89 55 e8          	mov    %rdx,-0x18(%rbp)
    3257:	48 8b 7d f0          	mov    -0x10(%rbp),%rdi
    325b:	48 89 7d 90          	mov    %rdi,-0x70(%rbp)
    325f:	48 8d 15 c7 1d 00 00 	lea    0x1dc7(%rip),%rdx 
    3266:	be 01 00 00 00       	mov    $0x1,%esi
    326b:	e8 a0 02 00 00       	call   3510 <_ZNKSt6vectorINSt7__cxx1112basic_stringIcSt11char_traitsIcESaIcEEESaIS5_EE12_M_check_lenEmPKc>
    3270:	48 8b 7d 90          	mov    -0x70(%rbp),%rdi
    3274:	48 89 45 e0          	mov    %rax,-0x20(%rbp)
    3278:	48 8b 07             	mov    (%rdi),%rax
    327b:	48 89 45 d8          	mov    %rax,-0x28(%rbp)
    327f:	48 8b 47 08          	mov    0x8(%rdi),%rax
    3283:	48 89 45 d0          	mov    %rax,-0x30(%rbp)
    3287:	e8 74 f7 ff ff       	call   2a00 <_ZNSt6vectorINSt7__cxx1112basic_stringIcSt11char_traitsIcESaIcEEESaIS5_EE5beginEv>
    328c:	48 89 45 c0          	mov    %rax,-0x40(%rbp)
    3290:	48 8d 7d f8          	lea    -0x8(%rbp),%rdi
    3294:	48 8d 75 c0          	lea    -0x40(%rbp),%rsi
    3298:	e8 63 03 00 00       	call   3600 <_ZN9__gnu_cxxmiIPNSt7__cxx1112basic_stringIcSt11char_traitsIcESaIcEEESt6vectorIS6_SaIS6_EEEENS_17__normal_iteratorIT_T0_E15difference_typeERKSE_SH_>
    329d:	48 8b 7d 90          	mov    -0x70(%rbp),%rdi
    32a1:	48 89 45 c8          	mov    %rax,-0x38(%rbp)
    32a5:	48 8b 75 e0          	mov    -0x20(%rbp),%rsi
    32a9:	e8 92 03 00 00       	call   3640 <_ZNSt12_Vector_baseINSt7__cxx1112basic_stringIcSt11char_traitsIcESaIcEEESaIS5_EE11_M_allocateEm>
    32ae:	48 89 45 b8          	mov    %rax,-0x48(%rbp)
    32b2:	48 8b 45 b8          	mov    -0x48(%rbp),%rax
    32b6:	48 89 45 b0          	mov    %rax,-0x50(%rbp)
    32ba:	48 8b 45 b8          	mov    -0x48(%rbp),%rax
    32be:	48 8b 4d c8          	mov    -0x38(%rbp),%rcx
    32c2:	48 c1 e1 05          	shl    $0x5,%rcx
    32c6:	48 01 c8             	add    %rcx,%rax
    32c9:	48 89 45 98          	mov    %rax,-0x68(%rbp)
    32cd:	48 8b 7d e8          	mov    -0x18(%rbp),%rdi
    32d1:	e8 2a 02 00 00       	call   3500 <_ZSt7forwardIRKNSt7__cxx1112basic_stringIcSt11char_traitsIcESaIcEEEEOT_RNSt16remove_referenceIS8_E4typeE>
    32d6:	48 8b 7d 90          	mov    -0x70(%rbp),%rdi
    32da:	48 8b 75 98          	mov    -0x68(%rbp),%rsi
    32de:	48 89 c2             	mov    %rax,%rdx
    32e1:	e8 0a ff ff ff       	call   31f0 <_ZNSt16allocator_traitsISaINSt7__cxx1112basic_stringIcSt11char_traitsIcESaIcEEEEE9constructIS5_JRKS5_EEEvRS6_PT_DpOT0_>
    32e6:	e9 00 00 00 00       	jmp    32eb <_ZNSt6vectorINSt7__cxx1112basic_stringIcSt11char_traitsIcESaIcEEESaIS5_EE17_M_realloc_insertIJRKS5_EEEvN9__gnu_cxx17__normal_iteratorIPS5_S7_EEDpOT_+0xab>
    32eb:	48 c7 45 b0 00 00 00 	movq   $0x0,-0x50(%rbp)
    32f2:	00 
    32f3:	48 8b 45 d8          	mov    -0x28(%rbp),%rax
    32f7:	48 89 85 60 ff ff ff 	mov    %rax,-0xa0(%rbp)
    32fe:	48 8d 7d f8          	lea    -0x8(%rbp),%rdi
    3302:	e8 c9 03 00 00       	call   36d0 <_ZNK9__gnu_cxx17__normal_iteratorIPNSt7__cxx1112basic_stringIcSt11char_traitsIcESaIcEEESt6vectorIS6_SaIS6_EEE4baseEv>
    3307:	48 8b 7d 90          	mov    -0x70(%rbp),%rdi
    330b:	48 8b 00             	mov    (%rax),%rax
    330e:	48 89 85 68 ff ff ff 	mov    %rax,-0x98(%rbp)
    3315:	48 8b 45 b8          	mov    -0x48(%rbp),%rax
    3319:	48 89 85 70 ff ff ff 	mov    %rax,-0x90(%rbp)
    3320:	e8 7b fa ff ff       	call   2da0 <_ZNSt12_Vector_baseINSt7__cxx1112basic_stringIcSt11char_traitsIcESaIcEEESaIS5_EE19_M_get_Tp_allocatorEv>
    3325:	48 8b bd 60 ff ff ff 	mov    -0xa0(%rbp),%rdi
    332c:	48 8b b5 68 ff ff ff 	mov    -0x98(%rbp),%rsi
    3333:	48 8b 95 70 ff ff ff 	mov    -0x90(%rbp),%rdx
    333a:	48 89 c1             	mov    %rax,%rcx
    333d:	e8 4e 03 00 00       	call   3690 <_ZNSt6vectorINSt7__cxx1112basic_stringIcSt11char_traitsIcESaIcEEESaIS5_EE11_S_relocateEPS5_S8_S8_RS6_>
    3342:	48 89 45 b0          	mov    %rax,-0x50(%rbp)
    3346:	48 8b 45 b0          	mov    -0x50(%rbp),%rax
    334a:	48 83 c0 20          	add    $0x20,%rax
    334e:	48 89 45 b0          	mov    %rax,-0x50(%rbp)
    3352:	48 8d 7d f8          	lea    -0x8(%rbp),%rdi
    3356:	e8 75 03 00 00       	call   36d0 <_ZNK9__gnu_cxx17__normal_iteratorIPNSt7__cxx1112basic_stringIcSt11char_traitsIcESaIcEEESt6vectorIS6_SaIS6_EEE4baseEv>
    335b:	48 8b 7d 90          	mov    -0x70(%rbp),%rdi
    335f:	48 8b 00             	mov    (%rax),%rax
    3362:	48 89 85 78 ff ff ff 	mov    %rax,-0x88(%rbp)
    3369:	48 8b 45 d0          	mov    -0x30(%rbp),%rax
    336d:	48 89 45 80          	mov    %rax,-0x80(%rbp)
    3371:	48 8b 45 b0          	mov    -0x50(%rbp),%rax
    3375:	48 89 45 88          	mov    %rax,-0x78(%rbp)
    3379:	e8 22 fa ff ff       	call   2da0 <_ZNSt12_Vector_baseINSt7__cxx1112basic_stringIcSt11char_traitsIcESaIcEEESaIS5_EE19_M_get_Tp_allocatorEv>
    337e:	48 8b bd 78 ff ff ff 	mov    -0x88(%rbp),%rdi
    3385:	48 8b 75 80          	mov    -0x80(%rbp),%rsi
    3389:	48 8b 55 88          	mov    -0x78(%rbp),%rdx
    338d:	48 89 c1             	mov    %rax,%rcx
    3390:	e8 fb 02 00 00       	call   3690 <_ZNSt6vectorINSt7__cxx1112basic_stringIcSt11char_traitsIcESaIcEEESaIS5_EE11_S_relocateEPS5_S8_S8_RS6_>
    3395:	48 89 45 b0          	mov    %rax,-0x50(%rbp)
    3399:	e9 b7 00 00 00       	jmp    3455 <_ZNSt6vectorINSt7__cxx1112basic_stringIcSt11char_traitsIcESaIcEEESaIS5_EE17_M_realloc_insertIJRKS5_EEEvN9__gnu_cxx17__normal_iteratorIPS5_S7_EEDpOT_+0x215>
    339e:	48 89 c1             	mov    %rax,%rcx
    33a1:	89 d0                	mov    %edx,%eax
    33a3:	48 89 4d a8          	mov    %rcx,-0x58(%rbp)
    33a7:	89 45 a4             	mov    %eax,-0x5c(%rbp)
    33aa:	48 8b 7d a8          	mov    -0x58(%rbp),%rdi
    33ae:	e8 bd ec ff ff       	call   2070 <__cxa_begin_catch@plt>
    33b3:	48 83 7d b0 00       	cmpq   $0x0,-0x50(%rbp)
    33b8:	0f 85 1d 00 00 00    	jne    33db <_ZNSt6vectorINSt7__cxx1112basic_stringIcSt11char_traitsIcESaIcEEESaIS5_EE17_M_realloc_insertIJRKS5_EEEvN9__gnu_cxx17__normal_iteratorIPS5_S7_EEDpOT_+0x19b>
    33be:	48 8b 7d 90          	mov    -0x70(%rbp),%rdi
    33c2:	48 8b 75 b8          	mov    -0x48(%rbp),%rsi
    33c6:	48 8b 45 c8          	mov    -0x38(%rbp),%rax
    33ca:	48 c1 e0 05          	shl    $0x5,%rax
    33ce:	48 01 c6             	add    %rax,%rsi
    33d1:	e8 0a 03 00 00       	call   36e0 <_ZNSt16allocator_traitsISaINSt7__cxx1112basic_stringIcSt11char_traitsIcESaIcEEEEE7destroyIS5_EEvRS6_PT_>
    33d6:	e9 55 00 00 00       	jmp    3430 <_ZNSt6vectorINSt7__cxx1112basic_stringIcSt11char_traitsIcESaIcEEESaIS5_EE17_M_realloc_insertIJRKS5_EEEvN9__gnu_cxx17__normal_iteratorIPS5_S7_EEDpOT_+0x1f0>
    33db:	48 8b 7d 90          	mov    -0x70(%rbp),%rdi
    33df:	48 8b 45 b8          	mov    -0x48(%rbp),%rax
    33e3:	48 89 85 50 ff ff ff 	mov    %rax,-0xb0(%rbp)
    33ea:	48 8b 45 b0          	mov    -0x50(%rbp),%rax
    33ee:	48 89 85 58 ff ff ff 	mov    %rax,-0xa8(%rbp)
    33f5:	e8 a6 f9 ff ff       	call   2da0 <_ZNSt12_Vector_baseINSt7__cxx1112basic_stringIcSt11char_traitsIcESaIcEEESaIS5_EE19_M_get_Tp_allocatorEv>
    33fa:	48 8b bd 50 ff ff ff 	mov    -0xb0(%rbp),%rdi
    3401:	48 8b b5 58 ff ff ff 	mov    -0xa8(%rbp),%rsi
    3408:	48 89 c2             	mov    %rax,%rdx
    340b:	e8 60 f9 ff ff       	call   2d70 <_ZSt8_DestroyIPNSt7__cxx1112basic_stringIcSt11char_traitsIcESaIcEEES5_EvT_S7_RSaIT0_E>
    3410:	e9 00 00 00 00       	jmp    3415 <_ZNSt6vectorINSt7__cxx1112basic_stringIcSt11char_traitsIcESaIcEEESaIS5_EE17_M_realloc_insertIJRKS5_EEEvN9__gnu_cxx17__normal_iteratorIPS5_S7_EEDpOT_+0x1d5>
    3415:	e9 16 00 00 00       	jmp    3430 <_ZNSt6vectorINSt7__cxx1112basic_stringIcSt11char_traitsIcESaIcEEESaIS5_EE17_M_realloc_insertIJRKS5_EEEvN9__gnu_cxx17__normal_iteratorIPS5_S7_EEDpOT_+0x1f0>
    341a:	48 89 c1             	mov    %rax,%rcx
    341d:	89 d0                	mov    %edx,%eax
    341f:	48 89 4d a8          	mov    %rcx,-0x58(%rbp)
    3423:	89 45 a4             	mov    %eax,-0x5c(%rbp)
    3426:	e8 75 ed ff ff       	call   21a0 <__cxa_end_catch@plt>
    342b:	e9 20 00 00 00       	jmp    3450 <_ZNSt6vectorINSt7__cxx1112basic_stringIcSt11char_traitsIcESaIcEEESaIS5_EE17_M_realloc_insertIJRKS5_EEEvN9__gnu_cxx17__normal_iteratorIPS5_S7_EEDpOT_+0x210>
    3430:	48 8b 7d 90          	mov    -0x70(%rbp),%rdi
    3434:	48 8b 75 b8          	mov    -0x48(%rbp),%rsi
    3438:	48 8b 55 e0          	mov    -0x20(%rbp),%rdx
    343c:	e8 8f fa ff ff       	call   2ed0 <_ZNSt12_Vector_baseINSt7__cxx1112basic_stringIcSt11char_traitsIcESaIcEEESaIS5_EE13_M_deallocateEPS5_m>
    3441:	e9 00 00 00 00       	jmp    3446 <_ZNSt6vectorINSt7__cxx1112basic_stringIcSt11char_traitsIcESaIcEEESaIS5_EE17_M_realloc_insertIJRKS5_EEEvN9__gnu_cxx17__normal_iteratorIPS5_S7_EEDpOT_+0x206>
    3446:	e8 15 ed ff ff       	call   2160 <__cxa_rethrow@plt>
    344b:	e9 64 00 00 00       	jmp    34b4 <_ZNSt6vectorINSt7__cxx1112basic_stringIcSt11char_traitsIcESaIcEEESaIS5_EE17_M_realloc_insertIJRKS5_EEEvN9__gnu_cxx17__normal_iteratorIPS5_S7_EEDpOT_+0x274>
    3450:	e9 4e 00 00 00       	jmp    34a3 <_ZNSt6vectorINSt7__cxx1112basic_stringIcSt11char_traitsIcESaIcEEESaIS5_EE17_M_realloc_insertIJRKS5_EEEvN9__gnu_cxx17__normal_iteratorIPS5_S7_EEDpOT_+0x263>
    3455:	48 8b 45 90          	mov    -0x70(%rbp),%rax
    3459:	48 89 c7             	mov    %rax,%rdi
    345c:	48 8b 75 d8          	mov    -0x28(%rbp),%rsi
    3460:	48 8b 50 10          	mov    0x10(%rax),%rdx
    3464:	48 8b 45 d8          	mov    -0x28(%rbp),%rax
    3468:	48 29 c2             	sub    %rax,%rdx
    346b:	48 c1 fa 05          	sar    $0x5,%rdx
    346f:	e8 5c fa ff ff       	call   2ed0 <_ZNSt12_Vector_baseINSt7__cxx1112basic_stringIcSt11char_traitsIcESaIcEEESaIS5_EE13_M_deallocateEPS5_m>
    3474:	48 8b 45 90          	mov    -0x70(%rbp),%rax
    3478:	48 8b 4d b8          	mov    -0x48(%rbp),%rcx
    347c:	48 89 08             	mov    %rcx,(%rax)
    347f:	48 8b 4d b0          	mov    -0x50(%rbp),%rcx
    3483:	48 89 48 08          	mov    %rcx,0x8(%rax)
    3487:	48 8b 4d b8          	mov    -0x48(%rbp),%rcx
    348b:	48 8b 55 e0          	mov    -0x20(%rbp),%rdx
    348f:	48 c1 e2 05          	shl    $0x5,%rdx
    3493:	48 01 d1             	add    %rdx,%rcx
    3496:	48 89 48 10          	mov    %rcx,0x10(%rax)
    349a:	48 81 c4 b0 00 00 00 	add    $0xb0,%rsp
    34a1:	5d                   	pop    %rbp
    34a2:	c3                   	ret    
    34a3:	48 8b 7d a8          	mov    -0x58(%rbp),%rdi
    34a7:	e8 04 ed ff ff       	call   21b0 <_Unwind_Resume@plt>
    34ac:	48 89 c7             	mov    %rax,%rdi
    34af:	e8 5c f9 ff ff       	call   2e10 <__clang_call_terminate>
    34b4:	66 2e 0f 1f 84 00 00 	cs nopw 0x0(%rax,%rax,1)
    34bb:	00 00 00 
    34be:	66 90                	xchg   %ax,%ax

00000000000034c0 <_ZN9__gnu_cxx13new_allocatorINSt7__cxx1112basic_stringIcSt11char_traitsIcESaIcEEEE9constructIS6_JRKS6_EEEvPT_DpOT0_>:
    34c0:	55                   	push   %rbp
    34c1:	48 89 e5             	mov    %rsp,%rbp
    34c4:	48 83 ec 20          	sub    $0x20,%rsp
    34c8:	48 89 7d f8          	mov    %rdi,-0x8(%rbp)
    34cc:	48 89 75 f0          	mov    %rsi,-0x10(%rbp)
    34d0:	48 89 55 e8          	mov    %rdx,-0x18(%rbp)
    34d4:	48 8b 45 f0          	mov    -0x10(%rbp),%rax
    34d8:	48 89 45 e0          	mov    %rax,-0x20(%rbp)
    34dc:	48 8b 7d e8          	mov    -0x18(%rbp),%rdi
    34e0:	e8 1b 00 00 00       	call   3500 <_ZSt7forwardIRKNSt7__cxx1112basic_stringIcSt11char_traitsIcESaIcEEEEOT_RNSt16remove_referenceIS8_E4typeE>
    34e5:	48 8b 7d e0          	mov    -0x20(%rbp),%rdi
    34e9:	48 89 c6             	mov    %rax,%rsi
    34ec:	e8 8f eb ff ff       	call   2080 <_ZNSt7__cxx1112basic_stringIcSt11char_traitsIcESaIcEEC1ERKS4_@plt>
    34f1:	48 83 c4 20          	add    $0x20,%rsp
    34f5:	5d                   	pop    %rbp
    34f6:	c3                   	ret    
    34f7:	66 0f 1f 84 00 00 00 	nopw   0x0(%rax,%rax,1)
    34fe:	00 00 

0000000000003500 <_ZSt7forwardIRKNSt7__cxx1112basic_stringIcSt11char_traitsIcESaIcEEEEOT_RNSt16remove_referenceIS8_E4typeE>:
    3500:	55                   	push   %rbp
    3501:	48 89 e5             	mov    %rsp,%rbp
    3504:	48 89 7d f8          	mov    %rdi,-0x8(%rbp)
    3508:	48 8b 45 f8          	mov    -0x8(%rbp),%rax
    350c:	5d                   	pop    %rbp
    350d:	c3                   	ret    
    350e:	66 90                	xchg   %ax,%ax

0000000000003510 <_ZNKSt6vectorINSt7__cxx1112basic_stringIcSt11char_traitsIcESaIcEEESaIS5_EE12_M_check_lenEmPKc>:
    3510:	55                   	push   %rbp
    3511:	48 89 e5             	mov    %rsp,%rbp
    3514:	48 83 ec 60          	sub    $0x60,%rsp
    3518:	48 89 7d f8          	mov    %rdi,-0x8(%rbp)
    351c:	48 89 75 f0          	mov    %rsi,-0x10(%rbp)
    3520:	48 89 55 e8          	mov    %rdx,-0x18(%rbp)
    3524:	48 8b 7d f8          	mov    -0x8(%rbp),%rdi
    3528:	48 89 7d c8          	mov    %rdi,-0x38(%rbp)
    352c:	e8 df 01 00 00       	call   3710 <_ZNKSt6vectorINSt7__cxx1112basic_stringIcSt11char_traitsIcESaIcEEESaIS5_EE8max_sizeEv>
    3531:	48 8b 7d c8          	mov    -0x38(%rbp),%rdi
    3535:	48 89 45 d0          	mov    %rax,-0x30(%rbp)
    3539:	e8 02 02 00 00       	call   3740 <_ZNKSt6vectorINSt7__cxx1112basic_stringIcSt11char_traitsIcESaIcEEESaIS5_EE4sizeEv>
    353e:	48 89 c1             	mov    %rax,%rcx
    3541:	48 8b 45 d0          	mov    -0x30(%rbp),%rax
    3545:	48 29 c8             	sub    %rcx,%rax
    3548:	48 3b 45 f0          	cmp    -0x10(%rbp),%rax
    354c:	0f 83 09 00 00 00    	jae    355b <_ZNKSt6vectorINSt7__cxx1112basic_stringIcSt11char_traitsIcESaIcEEESaIS5_EE12_M_check_lenEmPKc+0x4b>
    3552:	48 8b 7d e8          	mov    -0x18(%rbp),%rdi
    3556:	e8 35 eb ff ff       	call   2090 <_ZSt20__throw_length_errorPKc@plt>
    355b:	48 8b 7d c8          	mov    -0x38(%rbp),%rdi
    355f:	e8 dc 01 00 00       	call   3740 <_ZNKSt6vectorINSt7__cxx1112basic_stringIcSt11char_traitsIcESaIcEEESaIS5_EE4sizeEv>
    3564:	48 8b 7d c8          	mov    -0x38(%rbp),%rdi
    3568:	48 89 45 b8          	mov    %rax,-0x48(%rbp)
    356c:	e8 cf 01 00 00       	call   3740 <_ZNKSt6vectorINSt7__cxx1112basic_stringIcSt11char_traitsIcESaIcEEESaIS5_EE4sizeEv>
    3571:	48 89 45 d8          	mov    %rax,-0x28(%rbp)
    3575:	48 8d 7d d8          	lea    -0x28(%rbp),%rdi
    3579:	48 8d 75 f0          	lea    -0x10(%rbp),%rsi
    357d:	e8 de 01 00 00       	call   3760 <_ZSt3maxImERKT_S2_S2_>
    3582:	48 8b 7d c8          	mov    -0x38(%rbp),%rdi
    3586:	48 89 c1             	mov    %rax,%rcx
    3589:	48 8b 45 b8          	mov    -0x48(%rbp),%rax
    358d:	48 03 01             	add    (%rcx),%rax
    3590:	48 89 45 e0          	mov    %rax,-0x20(%rbp)
    3594:	48 8b 45 e0          	mov    -0x20(%rbp),%rax
    3598:	48 89 45 c0          	mov    %rax,-0x40(%rbp)
    359c:	e8 9f 01 00 00       	call   3740 <_ZNKSt6vectorINSt7__cxx1112basic_stringIcSt11char_traitsIcESaIcEEESaIS5_EE4sizeEv>
    35a1:	48 89 c1             	mov    %rax,%rcx
    35a4:	48 8b 45 c0          	mov    -0x40(%rbp),%rax
    35a8:	48 39 c8             	cmp    %rcx,%rax
    35ab:	0f 82 21 00 00 00    	jb     35d2 <_ZNKSt6vectorINSt7__cxx1112basic_stringIcSt11char_traitsIcESaIcEEESaIS5_EE12_M_check_lenEmPKc+0xc2>
    35b1:	48 8b 7d c8          	mov    -0x38(%rbp),%rdi
    35b5:	48 8b 45 e0          	mov    -0x20(%rbp),%rax
    35b9:	48 89 45 b0          	mov    %rax,-0x50(%rbp)
    35bd:	e8 4e 01 00 00       	call   3710 <_ZNKSt6vectorINSt7__cxx1112basic_stringIcSt11char_traitsIcESaIcEEESaIS5_EE8max_sizeEv>
    35c2:	48 89 c1             	mov    %rax,%rcx
    35c5:	48 8b 45 b0          	mov    -0x50(%rbp),%rax
    35c9:	48 39 c8             	cmp    %rcx,%rax
    35cc:	0f 86 12 00 00 00    	jbe    35e4 <_ZNKSt6vectorINSt7__cxx1112basic_stringIcSt11char_traitsIcESaIcEEESaIS5_EE12_M_check_lenEmPKc+0xd4>
    35d2:	48 8b 7d c8          	mov    -0x38(%rbp),%rdi
    35d6:	e8 35 01 00 00       	call   3710 <_ZNKSt6vectorINSt7__cxx1112basic_stringIcSt11char_traitsIcESaIcEEESaIS5_EE8max_sizeEv>
    35db:	48 89 45 a8          	mov    %rax,-0x58(%rbp)
    35df:	e9 08 00 00 00       	jmp    35ec <_ZNKSt6vectorINSt7__cxx1112basic_stringIcSt11char_traitsIcESaIcEEESaIS5_EE12_M_check_lenEmPKc+0xdc>
    35e4:	48 8b 45 e0          	mov    -0x20(%rbp),%rax
    35e8:	48 89 45 a8          	mov    %rax,-0x58(%rbp)
    35ec:	48 8b 45 a8          	mov    -0x58(%rbp),%rax
    35f0:	48 83 c4 60          	add    $0x60,%rsp
    35f4:	5d                   	pop    %rbp
    35f5:	c3                   	ret    
    35f6:	66 2e 0f 1f 84 00 00 	cs nopw 0x0(%rax,%rax,1)
    35fd:	00 00 00 

0000000000003600 <_ZN9__gnu_cxxmiIPNSt7__cxx1112basic_stringIcSt11char_traitsIcESaIcEEESt6vectorIS6_SaIS6_EEEENS_17__normal_iteratorIT_T0_E15difference_typeERKSE_SH_>:
    3600:	55                   	push   %rbp
    3601:	48 89 e5             	mov    %rsp,%rbp
    3604:	48 83 ec 20          	sub    $0x20,%rsp
    3608:	48 89 7d f8          	mov    %rdi,-0x8(%rbp)
    360c:	48 89 75 f0          	mov    %rsi,-0x10(%rbp)
    3610:	48 8b 7d f8          	mov    -0x8(%rbp),%rdi
    3614:	e8 b7 00 00 00       	call   36d0 <_ZNK9__gnu_cxx17__normal_iteratorIPNSt7__cxx1112basic_stringIcSt11char_traitsIcESaIcEEESt6vectorIS6_SaIS6_EEE4baseEv>
    3619:	48 8b 00             	mov    (%rax),%rax
    361c:	48 89 45 e8          	mov    %rax,-0x18(%rbp)
    3620:	48 8b 7d f0          	mov    -0x10(%rbp),%rdi
    3624:	e8 a7 00 00 00       	call   36d0 <_ZNK9__gnu_cxx17__normal_iteratorIPNSt7__cxx1112basic_stringIcSt11char_traitsIcESaIcEEESt6vectorIS6_SaIS6_EEE4baseEv>
    3629:	48 89 c1             	mov    %rax,%rcx
    362c:	48 8b 45 e8          	mov    -0x18(%rbp),%rax
    3630:	48 8b 09             	mov    (%rcx),%rcx
    3633:	48 29 c8             	sub    %rcx,%rax
    3636:	48 c1 f8 05          	sar    $0x5,%rax
    363a:	48 83 c4 20          	add    $0x20,%rsp
    363e:	5d                   	pop    %rbp
    363f:	c3                   	ret    

0000000000003640 <_ZNSt12_Vector_baseINSt7__cxx1112basic_stringIcSt11char_traitsIcESaIcEEESaIS5_EE11_M_allocateEm>:
    3640:	55                   	push   %rbp
    3641:	48 89 e5             	mov    %rsp,%rbp
    3644:	48 83 ec 20          	sub    $0x20,%rsp
    3648:	48 89 7d f8          	mov    %rdi,-0x8(%rbp)
    364c:	48 89 75 f0          	mov    %rsi,-0x10(%rbp)
    3650:	48 8b 45 f8          	mov    -0x8(%rbp),%rax
    3654:	48 89 45 e8          	mov    %rax,-0x18(%rbp)
    3658:	48 83 7d f0 00       	cmpq   $0x0,-0x10(%rbp)
    365d:	0f 84 16 00 00 00    	je     3679 <_ZNSt12_Vector_baseINSt7__cxx1112basic_stringIcSt11char_traitsIcESaIcEEESaIS5_EE11_M_allocateEm+0x39>
    3663:	48 8b 7d e8          	mov    -0x18(%rbp),%rdi
    3667:	48 8b 75 f0          	mov    -0x10(%rbp),%rsi
    366b:	e8 40 02 00 00       	call   38b0 <_ZNSt16allocator_traitsISaINSt7__cxx1112basic_stringIcSt11char_traitsIcESaIcEEEEE8allocateERS6_m>
    3670:	48 89 45 e0          	mov    %rax,-0x20(%rbp)
    3674:	e9 0b 00 00 00       	jmp    3684 <_ZNSt12_Vector_baseINSt7__cxx1112basic_stringIcSt11char_traitsIcESaIcEEESaIS5_EE11_M_allocateEm+0x44>
    3679:	31 c0                	xor    %eax,%eax
    367b:	48 89 45 e0          	mov    %rax,-0x20(%rbp)
    367f:	e9 00 00 00 00       	jmp    3684 <_ZNSt12_Vector_baseINSt7__cxx1112basic_stringIcSt11char_traitsIcESaIcEEESaIS5_EE11_M_allocateEm+0x44>
    3684:	48 8b 45 e0          	mov    -0x20(%rbp),%rax
    3688:	48 83 c4 20          	add    $0x20,%rsp
    368c:	5d                   	pop    %rbp
    368d:	c3                   	ret    
    368e:	66 90                	xchg   %ax,%ax

0000000000003690 <_ZNSt6vectorINSt7__cxx1112basic_stringIcSt11char_traitsIcESaIcEEESaIS5_EE11_S_relocateEPS5_S8_S8_RS6_>:
    3690:	55                   	push   %rbp
    3691:	48 89 e5             	mov    %rsp,%rbp
    3694:	48 83 ec 30          	sub    $0x30,%rsp
    3698:	48 89 7d f8          	mov    %rdi,-0x8(%rbp)
    369c:	48 89 75 f0          	mov    %rsi,-0x10(%rbp)
    36a0:	48 89 55 e8          	mov    %rdx,-0x18(%rbp)
    36a4:	48 89 4d e0          	mov    %rcx,-0x20(%rbp)
    36a8:	48 8b 7d f8          	mov    -0x8(%rbp),%rdi
    36ac:	48 8b 75 f0          	mov    -0x10(%rbp),%rsi
    36b0:	48 8b 55 e8          	mov    -0x18(%rbp),%rdx
    36b4:	48 8b 4d e0          	mov    -0x20(%rbp),%rcx
    36b8:	e8 93 02 00 00       	call   3950 <_ZNSt6vectorINSt7__cxx1112basic_stringIcSt11char_traitsIcESaIcEEESaIS5_EE14_S_do_relocateEPS5_S8_S8_RS6_St17integral_constantIbLb1EE>
    36bd:	48 83 c4 30          	add    $0x30,%rsp
    36c1:	5d                   	pop    %rbp
    36c2:	c3                   	ret    
    36c3:	66 2e 0f 1f 84 00 00 	cs nopw 0x0(%rax,%rax,1)
    36ca:	00 00 00 
    36cd:	0f 1f 00             	nopl   (%rax)

00000000000036d0 <_ZNK9__gnu_cxx17__normal_iteratorIPNSt7__cxx1112basic_stringIcSt11char_traitsIcESaIcEEESt6vectorIS6_SaIS6_EEE4baseEv>:
    36d0:	55                   	push   %rbp
    36d1:	48 89 e5             	mov    %rsp,%rbp
    36d4:	48 89 7d f8          	mov    %rdi,-0x8(%rbp)
    36d8:	48 8b 45 f8          	mov    -0x8(%rbp),%rax
    36dc:	5d                   	pop    %rbp
    36dd:	c3                   	ret    
    36de:	66 90                	xchg   %ax,%ax

00000000000036e0 <_ZNSt16allocator_traitsISaINSt7__cxx1112basic_stringIcSt11char_traitsIcESaIcEEEEE7destroyIS5_EEvRS6_PT_>:
    36e0:	55                   	push   %rbp
    36e1:	48 89 e5             	mov    %rsp,%rbp
    36e4:	48 83 ec 10          	sub    $0x10,%rsp
    36e8:	48 89 7d f8          	mov    %rdi,-0x8(%rbp)
    36ec:	48 89 75 f0          	mov    %rsi,-0x10(%rbp)
    36f0:	48 8b 7d f8          	mov    -0x8(%rbp),%rdi
    36f4:	48 8b 75 f0          	mov    -0x10(%rbp),%rsi
    36f8:	e8 93 04 00 00       	call   3b90 <_ZN9__gnu_cxx13new_allocatorINSt7__cxx1112basic_stringIcSt11char_traitsIcESaIcEEEE7destroyIS6_EEvPT_>
    36fd:	48 83 c4 10          	add    $0x10,%rsp
    3701:	5d                   	pop    %rbp
    3702:	c3                   	ret    
    3703:	66 2e 0f 1f 84 00 00 	cs nopw 0x0(%rax,%rax,1)
    370a:	00 00 00 
    370d:	0f 1f 00             	nopl   (%rax)

0000000000003710 <_ZNKSt6vectorINSt7__cxx1112basic_stringIcSt11char_traitsIcESaIcEEESaIS5_EE8max_sizeEv>:
    3710:	55                   	push   %rbp
    3711:	48 89 e5             	mov    %rsp,%rbp
    3714:	48 83 ec 10          	sub    $0x10,%rsp
    3718:	48 89 7d f8          	mov    %rdi,-0x8(%rbp)
    371c:	48 8b 7d f8          	mov    -0x8(%rbp),%rdi
    3720:	e8 db 00 00 00       	call   3800 <_ZNKSt12_Vector_baseINSt7__cxx1112basic_stringIcSt11char_traitsIcESaIcEEESaIS5_EE19_M_get_Tp_allocatorEv>
    3725:	48 89 c7             	mov    %rax,%rdi
    3728:	e8 73 00 00 00       	call   37a0 <_ZNSt6vectorINSt7__cxx1112basic_stringIcSt11char_traitsIcESaIcEEESaIS5_EE11_S_max_sizeERKS6_>
    372d:	48 83 c4 10          	add    $0x10,%rsp
    3731:	5d                   	pop    %rbp
    3732:	c3                   	ret    
    3733:	66 2e 0f 1f 84 00 00 	cs nopw 0x0(%rax,%rax,1)
    373a:	00 00 00 
    373d:	0f 1f 00             	nopl   (%rax)

0000000000003740 <_ZNKSt6vectorINSt7__cxx1112basic_stringIcSt11char_traitsIcESaIcEEESaIS5_EE4sizeEv>:
    3740:	55                   	push   %rbp
    3741:	48 89 e5             	mov    %rsp,%rbp
    3744:	48 89 7d f8          	mov    %rdi,-0x8(%rbp)
    3748:	48 8b 4d f8          	mov    -0x8(%rbp),%rcx
    374c:	48 8b 41 08          	mov    0x8(%rcx),%rax
    3750:	48 8b 09             	mov    (%rcx),%rcx
    3753:	48 29 c8             	sub    %rcx,%rax
    3756:	48 c1 f8 05          	sar    $0x5,%rax
    375a:	5d                   	pop    %rbp
    375b:	c3                   	ret    
    375c:	0f 1f 40 00          	nopl   0x0(%rax)

0000000000003760 <_ZSt3maxImERKT_S2_S2_>:
    3760:	55                   	push   %rbp
    3761:	48 89 e5             	mov    %rsp,%rbp
    3764:	48 89 7d f0          	mov    %rdi,-0x10(%rbp)
    3768:	48 89 75 e8          	mov    %rsi,-0x18(%rbp)
    376c:	48 8b 45 f0          	mov    -0x10(%rbp),%rax
    3770:	48 8b 00             	mov    (%rax),%rax
    3773:	48 8b 4d e8          	mov    -0x18(%rbp),%rcx
    3777:	48 3b 01             	cmp    (%rcx),%rax
    377a:	0f 83 0d 00 00 00    	jae    378d <_ZSt3maxImERKT_S2_S2_+0x2d>
    3780:	48 8b 45 e8          	mov    -0x18(%rbp),%rax
    3784:	48 89 45 f8          	mov    %rax,-0x8(%rbp)
    3788:	e9 08 00 00 00       	jmp    3795 <_ZSt3maxImERKT_S2_S2_+0x35>
    378d:	48 8b 45 f0          	mov    -0x10(%rbp),%rax
    3791:	48 89 45 f8          	mov    %rax,-0x8(%rbp)
    3795:	48 8b 45 f8          	mov    -0x8(%rbp),%rax
    3799:	5d                   	pop    %rbp
    379a:	c3                   	ret    
    379b:	0f 1f 44 00 00       	nopl   0x0(%rax,%rax,1)

00000000000037a0 <_ZNSt6vectorINSt7__cxx1112basic_stringIcSt11char_traitsIcESaIcEEESaIS5_EE11_S_max_sizeERKS6_>:
    37a0:	55                   	push   %rbp
    37a1:	48 89 e5             	mov    %rsp,%rbp
    37a4:	48 83 ec 20          	sub    $0x20,%rsp
    37a8:	48 89 7d f8          	mov    %rdi,-0x8(%rbp)
    37ac:	48 b8 ff ff ff ff ff 	movabs $0x3ffffffffffffff,%rax
    37b3:	ff ff 03 
    37b6:	48 89 45 f0          	mov    %rax,-0x10(%rbp)
    37ba:	48 8b 7d f8          	mov    -0x8(%rbp),%rdi
    37be:	e8 4d 00 00 00       	call   3810 <_ZNSt16allocator_traitsISaINSt7__cxx1112basic_stringIcSt11char_traitsIcESaIcEEEEE8max_sizeERKS6_>
    37c3:	48 89 45 e8          	mov    %rax,-0x18(%rbp)
    37c7:	48 8d 7d f0          	lea    -0x10(%rbp),%rdi
    37cb:	48 8d 75 e8          	lea    -0x18(%rbp),%rsi
    37cf:	e8 5c 00 00 00       	call   3830 <_ZSt3minImERKT_S2_S2_>
    37d4:	48 89 45 e0          	mov    %rax,-0x20(%rbp)
    37d8:	e9 00 00 00 00       	jmp    37dd <_ZNSt6vectorINSt7__cxx1112basic_stringIcSt11char_traitsIcESaIcEEESaIS5_EE11_S_max_sizeERKS6_+0x3d>
    37dd:	48 8b 45 e0          	mov    -0x20(%rbp),%rax
    37e1:	48 8b 00             	mov    (%rax),%rax
    37e4:	48 83 c4 20          	add    $0x20,%rsp
    37e8:	5d                   	pop    %rbp
    37e9:	c3                   	ret    
    37ea:	48 89 c7             	mov    %rax,%rdi
    37ed:	e8 1e f6 ff ff       	call   2e10 <__clang_call_terminate>
    37f2:	66 2e 0f 1f 84 00 00 	cs nopw 0x0(%rax,%rax,1)
    37f9:	00 00 00 
    37fc:	0f 1f 40 00          	nopl   0x0(%rax)

0000000000003800 <_ZNKSt12_Vector_baseINSt7__cxx1112basic_stringIcSt11char_traitsIcESaIcEEESaIS5_EE19_M_get_Tp_allocatorEv>:
    3800:	55                   	push   %rbp
    3801:	48 89 e5             	mov    %rsp,%rbp
    3804:	48 89 7d f8          	mov    %rdi,-0x8(%rbp)
    3808:	48 8b 45 f8          	mov    -0x8(%rbp),%rax
    380c:	5d                   	pop    %rbp
    380d:	c3                   	ret    
    380e:	66 90                	xchg   %ax,%ax

0000000000003810 <_ZNSt16allocator_traitsISaINSt7__cxx1112basic_stringIcSt11char_traitsIcESaIcEEEEE8max_sizeERKS6_>:
    3810:	55                   	push   %rbp
    3811:	48 89 e5             	mov    %rsp,%rbp
    3814:	48 83 ec 10          	sub    $0x10,%rsp
    3818:	48 89 7d f8          	mov    %rdi,-0x8(%rbp)
    381c:	48 8b 7d f8          	mov    -0x8(%rbp),%rdi
    3820:	e8 4b 00 00 00       	call   3870 <_ZNK9__gnu_cxx13new_allocatorINSt7__cxx1112basic_stringIcSt11char_traitsIcESaIcEEEE8max_sizeEv>
    3825:	48 83 c4 10          	add    $0x10,%rsp
    3829:	5d                   	pop    %rbp
    382a:	c3                   	ret    
    382b:	0f 1f 44 00 00       	nopl   0x0(%rax,%rax,1)

0000000000003830 <_ZSt3minImERKT_S2_S2_>:
    3830:	55                   	push   %rbp
    3831:	48 89 e5             	mov    %rsp,%rbp
    3834:	48 89 7d f0          	mov    %rdi,-0x10(%rbp)
    3838:	48 89 75 e8          	mov    %rsi,-0x18(%rbp)
    383c:	48 8b 45 e8          	mov    -0x18(%rbp),%rax
    3840:	48 8b 00             	mov    (%rax),%rax
    3843:	48 8b 4d f0          	mov    -0x10(%rbp),%rcx
    3847:	48 3b 01             	cmp    (%rcx),%rax
    384a:	0f 83 0d 00 00 00    	jae    385d <_ZSt3minImERKT_S2_S2_+0x2d>
    3850:	48 8b 45 e8          	mov    -0x18(%rbp),%rax
    3854:	48 89 45 f8          	mov    %rax,-0x8(%rbp)
    3858:	e9 08 00 00 00       	jmp    3865 <_ZSt3minImERKT_S2_S2_+0x35>
    385d:	48 8b 45 f0          	mov    -0x10(%rbp),%rax
    3861:	48 89 45 f8          	mov    %rax,-0x8(%rbp)
    3865:	48 8b 45 f8          	mov    -0x8(%rbp),%rax
    3869:	5d                   	pop    %rbp
    386a:	c3                   	ret    
    386b:	0f 1f 44 00 00       	nopl   0x0(%rax,%rax,1)

0000000000003870 <_ZNK9__gnu_cxx13new_allocatorINSt7__cxx1112basic_stringIcSt11char_traitsIcESaIcEEEE8max_sizeEv>:
    3870:	55                   	push   %rbp
    3871:	48 89 e5             	mov    %rsp,%rbp
    3874:	48 83 ec 10          	sub    $0x10,%rsp
    3878:	48 89 7d f8          	mov    %rdi,-0x8(%rbp)
    387c:	48 8b 7d f8          	mov    -0x8(%rbp),%rdi
    3880:	e8 0b 00 00 00       	call   3890 <_ZNK9__gnu_cxx13new_allocatorINSt7__cxx1112basic_stringIcSt11char_traitsIcESaIcEEEE11_M_max_sizeEv>
    3885:	48 83 c4 10          	add    $0x10,%rsp
    3889:	5d                   	pop    %rbp
    388a:	c3                   	ret    
    388b:	0f 1f 44 00 00       	nopl   0x0(%rax,%rax,1)

0000000000003890 <_ZNK9__gnu_cxx13new_allocatorINSt7__cxx1112basic_stringIcSt11char_traitsIcESaIcEEEE11_M_max_sizeEv>:
    3890:	55                   	push   %rbp
    3891:	48 89 e5             	mov    %rsp,%rbp
    3894:	48 89 7d f8          	mov    %rdi,-0x8(%rbp)
    3898:	48 b8 ff ff ff ff ff 	movabs $0x3ffffffffffffff,%rax
    389f:	ff ff 03 
    38a2:	5d                   	pop    %rbp
    38a3:	c3                   	ret    
    38a4:	66 2e 0f 1f 84 00 00 	cs nopw 0x0(%rax,%rax,1)
    38ab:	00 00 00 
    38ae:	66 90                	xchg   %ax,%ax

00000000000038b0 <_ZNSt16allocator_traitsISaINSt7__cxx1112basic_stringIcSt11char_traitsIcESaIcEEEEE8allocateERS6_m>:
    38b0:	55                   	push   %rbp
    38b1:	48 89 e5             	mov    %rsp,%rbp
    38b4:	48 83 ec 10          	sub    $0x10,%rsp
    38b8:	48 89 7d f8          	mov    %rdi,-0x8(%rbp)
    38bc:	48 89 75 f0          	mov    %rsi,-0x10(%rbp)
    38c0:	48 8b 7d f8          	mov    -0x8(%rbp),%rdi
    38c4:	48 8b 75 f0          	mov    -0x10(%rbp),%rsi
    38c8:	31 c0                	xor    %eax,%eax
    38ca:	89 c2                	mov    %eax,%edx
    38cc:	e8 0f 00 00 00       	call   38e0 <_ZN9__gnu_cxx13new_allocatorINSt7__cxx1112basic_stringIcSt11char_traitsIcESaIcEEEE8allocateEmPKv>
    38d1:	48 83 c4 10          	add    $0x10,%rsp
    38d5:	5d                   	pop    %rbp
    38d6:	c3                   	ret    
    38d7:	66 0f 1f 84 00 00 00 	nopw   0x0(%rax,%rax,1)
    38de:	00 00 

00000000000038e0 <_ZN9__gnu_cxx13new_allocatorINSt7__cxx1112basic_stringIcSt11char_traitsIcESaIcEEEE8allocateEmPKv>:
    38e0:	55                   	push   %rbp
    38e1:	48 89 e5             	mov    %rsp,%rbp
    38e4:	48 83 ec 20          	sub    $0x20,%rsp
    38e8:	48 89 7d f8          	mov    %rdi,-0x8(%rbp)
    38ec:	48 89 75 f0          	mov    %rsi,-0x10(%rbp)
    38f0:	48 89 55 e8          	mov    %rdx,-0x18(%rbp)
    38f4:	48 8b 7d f8          	mov    -0x8(%rbp),%rdi
    38f8:	48 8b 45 f0          	mov    -0x10(%rbp),%rax
    38fc:	48 89 45 e0          	mov    %rax,-0x20(%rbp)
    3900:	e8 8b ff ff ff       	call   3890 <_ZNK9__gnu_cxx13new_allocatorINSt7__cxx1112basic_stringIcSt11char_traitsIcESaIcEEEE11_M_max_sizeEv>
    3905:	48 89 c1             	mov    %rax,%rcx
    3908:	48 8b 45 e0          	mov    -0x20(%rbp),%rax
    390c:	48 39 c8             	cmp    %rcx,%rax
    390f:	0f 86 1e 00 00 00    	jbe    3933 <_ZN9__gnu_cxx13new_allocatorINSt7__cxx1112basic_stringIcSt11char_traitsIcESaIcEEEE8allocateEmPKv+0x53>
    3915:	48 b8 ff ff ff ff ff 	movabs $0x7ffffffffffffff,%rax
    391c:	ff ff 07 
    391f:	48 39 45 f0          	cmp    %rax,-0x10(%rbp)
    3923:	0f 86 05 00 00 00    	jbe    392e <_ZN9__gnu_cxx13new_allocatorINSt7__cxx1112basic_stringIcSt11char_traitsIcESaIcEEEE8allocateEmPKv+0x4e>
    3929:	e8 a2 e7 ff ff       	call   20d0 <_ZSt28__throw_bad_array_new_lengthv@plt>
    392e:	e8 2d e7 ff ff       	call   2060 <_ZSt17__throw_bad_allocv@plt>
    3933:	48 8b 7d f0          	mov    -0x10(%rbp),%rdi
    3937:	48 c1 e7 05          	shl    $0x5,%rdi
    393b:	e8 e0 e7 ff ff       	call   2120 <_Znwm@plt>
    3940:	48 83 c4 20          	add    $0x20,%rsp
    3944:	5d                   	pop    %rbp
    3945:	c3                   	ret    
    3946:	66 2e 0f 1f 84 00 00 	cs nopw 0x0(%rax,%rax,1)
    394d:	00 00 00 

0000000000003950 <_ZNSt6vectorINSt7__cxx1112basic_stringIcSt11char_traitsIcESaIcEEESaIS5_EE14_S_do_relocateEPS5_S8_S8_RS6_St17integral_constantIbLb1EE>:
    3950:	55                   	push   %rbp
    3951:	48 89 e5             	mov    %rsp,%rbp
    3954:	48 83 ec 30          	sub    $0x30,%rsp
    3958:	48 89 7d f0          	mov    %rdi,-0x10(%rbp)
    395c:	48 89 75 e8          	mov    %rsi,-0x18(%rbp)
    3960:	48 89 55 e0          	mov    %rdx,-0x20(%rbp)
    3964:	48 89 4d d8          	mov    %rcx,-0x28(%rbp)
    3968:	48 8b 7d f0          	mov    -0x10(%rbp),%rdi
    396c:	48 8b 75 e8          	mov    -0x18(%rbp),%rsi
    3970:	48 8b 55 e0          	mov    -0x20(%rbp),%rdx
    3974:	48 8b 4d d8          	mov    -0x28(%rbp),%rcx
    3978:	e8 13 00 00 00       	call   3990 <_ZSt12__relocate_aIPNSt7__cxx1112basic_stringIcSt11char_traitsIcESaIcEEES6_SaIS5_EET0_T_S9_S8_RT1_>
    397d:	48 83 c4 30          	add    $0x30,%rsp
    3981:	5d                   	pop    %rbp
    3982:	c3                   	ret    
    3983:	66 2e 0f 1f 84 00 00 	cs nopw 0x0(%rax,%rax,1)
    398a:	00 00 00 
    398d:	0f 1f 00             	nopl   (%rax)

0000000000003990 <_ZSt12__relocate_aIPNSt7__cxx1112basic_stringIcSt11char_traitsIcESaIcEEES6_SaIS5_EET0_T_S9_S8_RT1_>:
    3990:	55                   	push   %rbp
    3991:	48 89 e5             	mov    %rsp,%rbp
    3994:	48 83 ec 30          	sub    $0x30,%rsp
    3998:	48 89 7d f8          	mov    %rdi,-0x8(%rbp)
    399c:	48 89 75 f0          	mov    %rsi,-0x10(%rbp)
    39a0:	48 89 55 e8          	mov    %rdx,-0x18(%rbp)
    39a4:	48 89 4d e0          	mov    %rcx,-0x20(%rbp)
    39a8:	48 8b 7d f8          	mov    -0x8(%rbp),%rdi
    39ac:	e8 bf 00 00 00       	call   3a70 <_ZSt12__niter_baseIPNSt7__cxx1112basic_stringIcSt11char_traitsIcESaIcEEEET_S7_>
    39b1:	48 89 45 d0          	mov    %rax,-0x30(%rbp)
    39b5:	48 8b 7d f0          	mov    -0x10(%rbp),%rdi
    39b9:	e8 b2 00 00 00       	call   3a70 <_ZSt12__niter_baseIPNSt7__cxx1112basic_stringIcSt11char_traitsIcESaIcEEEET_S7_>
    39be:	48 89 45 d8          	mov    %rax,-0x28(%rbp)
    39c2:	48 8b 7d e8          	mov    -0x18(%rbp),%rdi
    39c6:	e8 a5 00 00 00       	call   3a70 <_ZSt12__niter_baseIPNSt7__cxx1112basic_stringIcSt11char_traitsIcESaIcEEEET_S7_>
    39cb:	48 8b 7d d0          	mov    -0x30(%rbp),%rdi
    39cf:	48 8b 75 d8          	mov    -0x28(%rbp),%rsi
    39d3:	48 89 c2             	mov    %rax,%rdx
    39d6:	48 8b 4d e0          	mov    -0x20(%rbp),%rcx
    39da:	e8 11 00 00 00       	call   39f0 <_ZSt14__relocate_a_1IPNSt7__cxx1112basic_stringIcSt11char_traitsIcESaIcEEES6_SaIS5_EET0_T_S9_S8_RT1_>
    39df:	48 83 c4 30          	add    $0x30,%rsp
    39e3:	5d                   	pop    %rbp
    39e4:	c3                   	ret    
    39e5:	66 2e 0f 1f 84 00 00 	cs nopw 0x0(%rax,%rax,1)
    39ec:	00 00 00 
    39ef:	90                   	nop

00000000000039f0 <_ZSt14__relocate_a_1IPNSt7__cxx1112basic_stringIcSt11char_traitsIcESaIcEEES6_SaIS5_EET0_T_S9_S8_RT1_>:
    39f0:	55                   	push   %rbp
    39f1:	48 89 e5             	mov    %rsp,%rbp
    39f4:	48 83 ec 30          	sub    $0x30,%rsp
    39f8:	48 89 7d f8          	mov    %rdi,-0x8(%rbp)
    39fc:	48 89 75 f0          	mov    %rsi,-0x10(%rbp)
    3a00:	48 89 55 e8          	mov    %rdx,-0x18(%rbp)
    3a04:	48 89 4d e0          	mov    %rcx,-0x20(%rbp)
    3a08:	48 8b 45 e8          	mov    -0x18(%rbp),%rax
    3a0c:	48 89 45 d8          	mov    %rax,-0x28(%rbp)
    3a10:	48 8b 45 f8          	mov    -0x8(%rbp),%rax
    3a14:	48 3b 45 f0          	cmp    -0x10(%rbp),%rax
    3a18:	0f 84 43 00 00 00    	je     3a61 <_ZSt14__relocate_a_1IPNSt7__cxx1112basic_stringIcSt11char_traitsIcESaIcEEES6_SaIS5_EET0_T_S9_S8_RT1_+0x71>
    3a1e:	48 8b 7d d8          	mov    -0x28(%rbp),%rdi
    3a22:	e8 99 f4 ff ff       	call   2ec0 <_ZSt11__addressofINSt7__cxx1112basic_stringIcSt11char_traitsIcESaIcEEEEPT_RS6_>
    3a27:	48 89 45 d0          	mov    %rax,-0x30(%rbp)
    3a2b:	48 8b 7d f8          	mov    -0x8(%rbp),%rdi
    3a2f:	e8 8c f4 ff ff       	call   2ec0 <_ZSt11__addressofINSt7__cxx1112basic_stringIcSt11char_traitsIcESaIcEEEEPT_RS6_>
    3a34:	48 8b 7d d0          	mov    -0x30(%rbp),%rdi
    3a38:	48 89 c6             	mov    %rax,%rsi
    3a3b:	48 8b 55 e0          	mov    -0x20(%rbp),%rdx
    3a3f:	e8 3c 00 00 00       	call   3a80 <_ZSt19__relocate_object_aINSt7__cxx1112basic_stringIcSt11char_traitsIcESaIcEEES5_SaIS5_EEvPT_PT0_RT1_>
    3a44:	48 8b 45 f8          	mov    -0x8(%rbp),%rax
    3a48:	48 83 c0 20          	add    $0x20,%rax
    3a4c:	48 89 45 f8          	mov    %rax,-0x8(%rbp)
    3a50:	48 8b 45 d8          	mov    -0x28(%rbp),%rax
    3a54:	48 83 c0 20          	add    $0x20,%rax
    3a58:	48 89 45 d8          	mov    %rax,-0x28(%rbp)
    3a5c:	e9 af ff ff ff       	jmp    3a10 <_ZSt14__relocate_a_1IPNSt7__cxx1112basic_stringIcSt11char_traitsIcESaIcEEES6_SaIS5_EET0_T_S9_S8_RT1_+0x20>
    3a61:	48 8b 45 d8          	mov    -0x28(%rbp),%rax
    3a65:	48 83 c4 30          	add    $0x30,%rsp
    3a69:	5d                   	pop    %rbp
    3a6a:	c3                   	ret    
    3a6b:	0f 1f 44 00 00       	nopl   0x0(%rax,%rax,1)

0000000000003a70 <_ZSt12__niter_baseIPNSt7__cxx1112basic_stringIcSt11char_traitsIcESaIcEEEET_S7_>:
    3a70:	55                   	push   %rbp
    3a71:	48 89 e5             	mov    %rsp,%rbp
    3a74:	48 89 7d f8          	mov    %rdi,-0x8(%rbp)
    3a78:	48 8b 45 f8          	mov    -0x8(%rbp),%rax
    3a7c:	5d                   	pop    %rbp
    3a7d:	c3                   	ret    
    3a7e:	66 90                	xchg   %ax,%ax

0000000000003a80 <_ZSt19__relocate_object_aINSt7__cxx1112basic_stringIcSt11char_traitsIcESaIcEEES5_SaIS5_EEvPT_PT0_RT1_>:
    3a80:	55                   	push   %rbp
    3a81:	48 89 e5             	mov    %rsp,%rbp
    3a84:	48 83 ec 30          	sub    $0x30,%rsp
    3a88:	48 89 7d f8          	mov    %rdi,-0x8(%rbp)
    3a8c:	48 89 75 f0          	mov    %rsi,-0x10(%rbp)
    3a90:	48 89 55 e8          	mov    %rdx,-0x18(%rbp)
    3a94:	48 8b 45 e8          	mov    -0x18(%rbp),%rax
    3a98:	48 89 45 d0          	mov    %rax,-0x30(%rbp)
    3a9c:	48 8b 45 f8          	mov    -0x8(%rbp),%rax
    3aa0:	48 89 45 d8          	mov    %rax,-0x28(%rbp)
    3aa4:	48 8b 7d f0          	mov    -0x10(%rbp),%rdi
    3aa8:	e8 83 00 00 00       	call   3b30 <_ZSt4moveIRNSt7__cxx1112basic_stringIcSt11char_traitsIcESaIcEEEEONSt16remove_referenceIT_E4typeEOS8_>
    3aad:	48 8b 7d d0          	mov    -0x30(%rbp),%rdi
    3ab1:	48 8b 75 d8          	mov    -0x28(%rbp),%rsi
    3ab5:	48 89 c2             	mov    %rax,%rdx
    3ab8:	e8 23 00 00 00       	call   3ae0 <_ZNSt16allocator_traitsISaINSt7__cxx1112basic_stringIcSt11char_traitsIcESaIcEEEEE9constructIS5_JS5_EEEvRS6_PT_DpOT0_>
    3abd:	48 8b 45 e8          	mov    -0x18(%rbp),%rax
    3ac1:	48 89 45 e0          	mov    %rax,-0x20(%rbp)
    3ac5:	48 8b 7d f0          	mov    -0x10(%rbp),%rdi
    3ac9:	e8 f2 f3 ff ff       	call   2ec0 <_ZSt11__addressofINSt7__cxx1112basic_stringIcSt11char_traitsIcESaIcEEEEPT_RS6_>
    3ace:	48 8b 7d e0          	mov    -0x20(%rbp),%rdi
    3ad2:	48 89 c6             	mov    %rax,%rsi
    3ad5:	e8 06 fc ff ff       	call   36e0 <_ZNSt16allocator_traitsISaINSt7__cxx1112basic_stringIcSt11char_traitsIcESaIcEEEEE7destroyIS5_EEvRS6_PT_>
    3ada:	48 83 c4 30          	add    $0x30,%rsp
    3ade:	5d                   	pop    %rbp
    3adf:	c3                   	ret    

0000000000003ae0 <_ZNSt16allocator_traitsISaINSt7__cxx1112basic_stringIcSt11char_traitsIcESaIcEEEEE9constructIS5_JS5_EEEvRS6_PT_DpOT0_>:
    3ae0:	55                   	push   %rbp
    3ae1:	48 89 e5             	mov    %rsp,%rbp
    3ae4:	48 83 ec 30          	sub    $0x30,%rsp
    3ae8:	48 89 7d f8          	mov    %rdi,-0x8(%rbp)
    3aec:	48 89 75 f0          	mov    %rsi,-0x10(%rbp)
    3af0:	48 89 55 e8          	mov    %rdx,-0x18(%rbp)
    3af4:	48 8b 45 f8          	mov    -0x8(%rbp),%rax
    3af8:	48 89 45 d8          	mov    %rax,-0x28(%rbp)
    3afc:	48 8b 45 f0          	mov    -0x10(%rbp),%rax
    3b00:	48 89 45 e0          	mov    %rax,-0x20(%rbp)
    3b04:	48 8b 7d e8          	mov    -0x18(%rbp),%rdi
    3b08:	e8 73 00 00 00       	call   3b80 <_ZSt7forwardINSt7__cxx1112basic_stringIcSt11char_traitsIcESaIcEEEEOT_RNSt16remove_referenceIS6_E4typeE>
    3b0d:	48 8b 7d d8          	mov    -0x28(%rbp),%rdi
    3b11:	48 8b 75 e0          	mov    -0x20(%rbp),%rsi
    3b15:	48 89 c2             	mov    %rax,%rdx
    3b18:	e8 23 00 00 00       	call   3b40 <_ZN9__gnu_cxx13new_allocatorINSt7__cxx1112basic_stringIcSt11char_traitsIcESaIcEEEE9constructIS6_JS6_EEEvPT_DpOT0_>
    3b1d:	48 83 c4 30          	add    $0x30,%rsp
    3b21:	5d                   	pop    %rbp
    3b22:	c3                   	ret    
    3b23:	66 2e 0f 1f 84 00 00 	cs nopw 0x0(%rax,%rax,1)
    3b2a:	00 00 00 
    3b2d:	0f 1f 00             	nopl   (%rax)

0000000000003b30 <_ZSt4moveIRNSt7__cxx1112basic_stringIcSt11char_traitsIcESaIcEEEEONSt16remove_referenceIT_E4typeEOS8_>:
    3b30:	55                   	push   %rbp
    3b31:	48 89 e5             	mov    %rsp,%rbp
    3b34:	48 89 7d f8          	mov    %rdi,-0x8(%rbp)
    3b38:	48 8b 45 f8          	mov    -0x8(%rbp),%rax
    3b3c:	5d                   	pop    %rbp
    3b3d:	c3                   	ret    
    3b3e:	66 90                	xchg   %ax,%ax

0000000000003b40 <_ZN9__gnu_cxx13new_allocatorINSt7__cxx1112basic_stringIcSt11char_traitsIcESaIcEEEE9constructIS6_JS6_EEEvPT_DpOT0_>:
    3b40:	55                   	push   %rbp
    3b41:	48 89 e5             	mov    %rsp,%rbp
    3b44:	48 83 ec 20          	sub    $0x20,%rsp
    3b48:	48 89 7d f8          	mov    %rdi,-0x8(%rbp)
    3b4c:	48 89 75 f0          	mov    %rsi,-0x10(%rbp)
    3b50:	48 89 55 e8          	mov    %rdx,-0x18(%rbp)
    3b54:	48 8b 45 f0          	mov    -0x10(%rbp),%rax
    3b58:	48 89 45 e0          	mov    %rax,-0x20(%rbp)
    3b5c:	48 8b 7d e8          	mov    -0x18(%rbp),%rdi
    3b60:	e8 1b 00 00 00       	call   3b80 <_ZSt7forwardINSt7__cxx1112basic_stringIcSt11char_traitsIcESaIcEEEEOT_RNSt16remove_referenceIS6_E4typeE>
    3b65:	48 8b 7d e0          	mov    -0x20(%rbp),%rdi
    3b69:	48 89 c6             	mov    %rax,%rsi
    3b6c:	e8 2f e5 ff ff       	call   20a0 <_ZNSt7__cxx1112basic_stringIcSt11char_traitsIcESaIcEEC1EOS4_@plt>
    3b71:	48 83 c4 20          	add    $0x20,%rsp
    3b75:	5d                   	pop    %rbp
    3b76:	c3                   	ret    
    3b77:	66 0f 1f 84 00 00 00 	nopw   0x0(%rax,%rax,1)
    3b7e:	00 00 

0000000000003b80 <_ZSt7forwardINSt7__cxx1112basic_stringIcSt11char_traitsIcESaIcEEEEOT_RNSt16remove_referenceIS6_E4typeE>:
    3b80:	55                   	push   %rbp
    3b81:	48 89 e5             	mov    %rsp,%rbp
    3b84:	48 89 7d f8          	mov    %rdi,-0x8(%rbp)
    3b88:	48 8b 45 f8          	mov    -0x8(%rbp),%rax
    3b8c:	5d                   	pop    %rbp
    3b8d:	c3                   	ret    
    3b8e:	66 90                	xchg   %ax,%ax

0000000000003b90 <_ZN9__gnu_cxx13new_allocatorINSt7__cxx1112basic_stringIcSt11char_traitsIcESaIcEEEE7destroyIS6_EEvPT_>:
    3b90:	55                   	push   %rbp
    3b91:	48 89 e5             	mov    %rsp,%rbp
    3b94:	48 83 ec 10          	sub    $0x10,%rsp
    3b98:	48 89 7d f8          	mov    %rdi,-0x8(%rbp)
    3b9c:	48 89 75 f0          	mov    %rsi,-0x10(%rbp)
    3ba0:	48 8b 7d f0          	mov    -0x10(%rbp),%rdi
    3ba4:	e8 07 e5 ff ff       	call   20b0 <_ZNSt7__cxx1112basic_stringIcSt11char_traitsIcESaIcEED1Ev@plt>
    3ba9:	48 83 c4 10          	add    $0x10,%rsp
    3bad:	5d                   	pop    %rbp
    3bae:	c3                   	ret    
    3baf:	90                   	nop

0000000000003bb0 <_ZNSt16allocator_traitsISaI6CSVRowEE9constructIS0_JRKS0_EEEvRS1_PT_DpOT0_>:
    3bb0:	55                   	push   %rbp
    3bb1:	48 89 e5             	mov    %rsp,%rbp
    3bb4:	48 83 ec 30          	sub    $0x30,%rsp
    3bb8:	48 89 7d f8          	mov    %rdi,-0x8(%rbp)
    3bbc:	48 89 75 f0          	mov    %rsi,-0x10(%rbp)
    3bc0:	48 89 55 e8          	mov    %rdx,-0x18(%rbp)
    3bc4:	48 8b 45 f8          	mov    -0x8(%rbp),%rax
    3bc8:	48 89 45 d8          	mov    %rax,-0x28(%rbp)
    3bcc:	48 8b 45 f0          	mov    -0x10(%rbp),%rax
    3bd0:	48 89 45 e0          	mov    %rax,-0x20(%rbp)
    3bd4:	48 8b 7d e8          	mov    -0x18(%rbp),%rdi
    3bd8:	e8 e3 02 00 00       	call   3ec0 <_ZSt7forwardIRK6CSVRowEOT_RNSt16remove_referenceIS3_E4typeE>
    3bdd:	48 8b 7d d8          	mov    -0x28(%rbp),%rdi
    3be1:	48 8b 75 e0          	mov    -0x20(%rbp),%rsi
    3be5:	48 89 c2             	mov    %rax,%rdx
    3be8:	e8 93 02 00 00       	call   3e80 <_ZN9__gnu_cxx13new_allocatorI6CSVRowE9constructIS1_JRKS1_EEEvPT_DpOT0_>
    3bed:	48 83 c4 30          	add    $0x30,%rsp
    3bf1:	5d                   	pop    %rbp
    3bf2:	c3                   	ret    
    3bf3:	66 2e 0f 1f 84 00 00 	cs nopw 0x0(%rax,%rax,1)
    3bfa:	00 00 00 
    3bfd:	0f 1f 00             	nopl   (%rax)

0000000000003c00 <_ZNSt6vectorI6CSVRowSaIS0_EE17_M_realloc_insertIJRKS0_EEEvN9__gnu_cxx17__normal_iteratorIPS0_S2_EEDpOT_>:
    3c00:	55                   	push   %rbp
    3c01:	48 89 e5             	mov    %rsp,%rbp
    3c04:	48 81 ec b0 00 00 00 	sub    $0xb0,%rsp
    3c0b:	48 89 75 f8          	mov    %rsi,-0x8(%rbp)
    3c0f:	48 89 7d f0          	mov    %rdi,-0x10(%rbp)
    3c13:	48 89 55 e8          	mov    %rdx,-0x18(%rbp)
    3c17:	48 8b 7d f0          	mov    -0x10(%rbp),%rdi
    3c1b:	48 89 7d 90          	mov    %rdi,-0x70(%rbp)
    3c1f:	48 8d 15 07 14 00 00 	lea    0x1407(%rip),%rdx 
    3c26:	be 01 00 00 00       	mov    $0x1,%esi
    3c2b:	e8 30 08 00 00       	call   4460 <_ZNKSt6vectorI6CSVRowSaIS0_EE12_M_check_lenEmPKc>
    3c30:	48 8b 7d 90          	mov    -0x70(%rbp),%rdi
    3c34:	48 89 45 e0          	mov    %rax,-0x20(%rbp)
    3c38:	48 8b 07             	mov    (%rdi),%rax
    3c3b:	48 89 45 d8          	mov    %rax,-0x28(%rbp)
    3c3f:	48 8b 47 08          	mov    0x8(%rdi),%rax
    3c43:	48 89 45 d0          	mov    %rax,-0x30(%rbp)
    3c47:	e8 e4 ec ff ff       	call   2930 <_ZNSt6vectorI6CSVRowSaIS0_EE5beginEv>
    3c4c:	48 89 45 c0          	mov    %rax,-0x40(%rbp)
    3c50:	48 8d 7d f8          	lea    -0x8(%rbp),%rdi
    3c54:	48 8d 75 c0          	lea    -0x40(%rbp),%rsi
    3c58:	e8 f3 08 00 00       	call   4550 <_ZN9__gnu_cxxmiIP6CSVRowSt6vectorIS1_SaIS1_EEEENS_17__normal_iteratorIT_T0_E15difference_typeERKS9_SC_>
    3c5d:	48 8b 7d 90          	mov    -0x70(%rbp),%rdi
    3c61:	48 89 45 c8          	mov    %rax,-0x38(%rbp)
    3c65:	48 8b 75 e0          	mov    -0x20(%rbp),%rsi
    3c69:	e8 32 09 00 00       	call   45a0 <_ZNSt12_Vector_baseI6CSVRowSaIS0_EE11_M_allocateEm>
    3c6e:	48 89 45 b8          	mov    %rax,-0x48(%rbp)
    3c72:	48 8b 45 b8          	mov    -0x48(%rbp),%rax
    3c76:	48 89 45 b0          	mov    %rax,-0x50(%rbp)
    3c7a:	48 8b 45 b8          	mov    -0x48(%rbp),%rax
    3c7e:	48 8b 4d c8          	mov    -0x38(%rbp),%rcx
    3c82:	48 8d 0c 49          	lea    (%rcx,%rcx,2),%rcx
    3c86:	48 8d 04 c8          	lea    (%rax,%rcx,8),%rax
    3c8a:	48 89 45 98          	mov    %rax,-0x68(%rbp)
    3c8e:	48 8b 7d e8          	mov    -0x18(%rbp),%rdi
    3c92:	e8 29 02 00 00       	call   3ec0 <_ZSt7forwardIRK6CSVRowEOT_RNSt16remove_referenceIS3_E4typeE>
    3c97:	48 8b 7d 90          	mov    -0x70(%rbp),%rdi
    3c9b:	48 8b 75 98          	mov    -0x68(%rbp),%rsi
    3c9f:	48 89 c2             	mov    %rax,%rdx
    3ca2:	e8 09 ff ff ff       	call   3bb0 <_ZNSt16allocator_traitsISaI6CSVRowEE9constructIS0_JRKS0_EEEvRS1_PT_DpOT0_>
    3ca7:	e9 00 00 00 00       	jmp    3cac <_ZNSt6vectorI6CSVRowSaIS0_EE17_M_realloc_insertIJRKS0_EEEvN9__gnu_cxx17__normal_iteratorIPS0_S2_EEDpOT_+0xac>
    3cac:	48 c7 45 b0 00 00 00 	movq   $0x0,-0x50(%rbp)
    3cb3:	00 
    3cb4:	48 8b 45 d8          	mov    -0x28(%rbp),%rax
    3cb8:	48 89 85 60 ff ff ff 	mov    %rax,-0xa0(%rbp)
    3cbf:	48 8d 7d f8          	lea    -0x8(%rbp),%rdi
    3cc3:	e8 68 09 00 00       	call   4630 <_ZNK9__gnu_cxx17__normal_iteratorIP6CSVRowSt6vectorIS1_SaIS1_EEE4baseEv>
    3cc8:	48 8b 7d 90          	mov    -0x70(%rbp),%rdi
    3ccc:	48 8b 00             	mov    (%rax),%rax
    3ccf:	48 89 85 68 ff ff ff 	mov    %rax,-0x98(%rbp)
    3cd6:	48 8b 45 b8          	mov    -0x48(%rbp),%rax
    3cda:	48 89 85 70 ff ff ff 	mov    %rax,-0x90(%rbp)
    3ce1:	e8 ea f2 ff ff       	call   2fd0 <_ZNSt12_Vector_baseI6CSVRowSaIS0_EE19_M_get_Tp_allocatorEv>
    3ce6:	48 8b bd 60 ff ff ff 	mov    -0xa0(%rbp),%rdi
    3ced:	48 8b b5 68 ff ff ff 	mov    -0x98(%rbp),%rsi
    3cf4:	48 8b 95 70 ff ff ff 	mov    -0x90(%rbp),%rdx
    3cfb:	48 89 c1             	mov    %rax,%rcx
    3cfe:	e8 ed 08 00 00       	call   45f0 <_ZNSt6vectorI6CSVRowSaIS0_EE11_S_relocateEPS0_S3_S3_RS1_>
    3d03:	48 89 45 b0          	mov    %rax,-0x50(%rbp)
    3d07:	48 8b 45 b0          	mov    -0x50(%rbp),%rax
    3d0b:	48 83 c0 18          	add    $0x18,%rax
    3d0f:	48 89 45 b0          	mov    %rax,-0x50(%rbp)
    3d13:	48 8d 7d f8          	lea    -0x8(%rbp),%rdi
    3d17:	e8 14 09 00 00       	call   4630 <_ZNK9__gnu_cxx17__normal_iteratorIP6CSVRowSt6vectorIS1_SaIS1_EEE4baseEv>
    3d1c:	48 8b 7d 90          	mov    -0x70(%rbp),%rdi
    3d20:	48 8b 00             	mov    (%rax),%rax
    3d23:	48 89 85 78 ff ff ff 	mov    %rax,-0x88(%rbp)
    3d2a:	48 8b 45 d0          	mov    -0x30(%rbp),%rax
    3d2e:	48 89 45 80          	mov    %rax,-0x80(%rbp)
    3d32:	48 8b 45 b0          	mov    -0x50(%rbp),%rax
    3d36:	48 89 45 88          	mov    %rax,-0x78(%rbp)
    3d3a:	e8 91 f2 ff ff       	call   2fd0 <_ZNSt12_Vector_baseI6CSVRowSaIS0_EE19_M_get_Tp_allocatorEv>
    3d3f:	48 8b bd 78 ff ff ff 	mov    -0x88(%rbp),%rdi
    3d46:	48 8b 75 80          	mov    -0x80(%rbp),%rsi
    3d4a:	48 8b 55 88          	mov    -0x78(%rbp),%rdx
    3d4e:	48 89 c1             	mov    %rax,%rcx
    3d51:	e8 9a 08 00 00       	call   45f0 <_ZNSt6vectorI6CSVRowSaIS0_EE11_S_relocateEPS0_S3_S3_RS1_>
    3d56:	48 89 45 b0          	mov    %rax,-0x50(%rbp)
    3d5a:	e9 b4 00 00 00       	jmp    3e13 <_ZNSt6vectorI6CSVRowSaIS0_EE17_M_realloc_insertIJRKS0_EEEvN9__gnu_cxx17__normal_iteratorIPS0_S2_EEDpOT_+0x213>
    3d5f:	48 89 c1             	mov    %rax,%rcx
    3d62:	89 d0                	mov    %edx,%eax
    3d64:	48 89 4d a8          	mov    %rcx,-0x58(%rbp)
    3d68:	89 45 a4             	mov    %eax,-0x5c(%rbp)
    3d6b:	48 8b 7d a8          	mov    -0x58(%rbp),%rdi
    3d6f:	e8 fc e2 ff ff       	call   2070 <__cxa_begin_catch@plt>
    3d74:	48 83 7d b0 00       	cmpq   $0x0,-0x50(%rbp)
    3d79:	0f 85 1a 00 00 00    	jne    3d99 <_ZNSt6vectorI6CSVRowSaIS0_EE17_M_realloc_insertIJRKS0_EEEvN9__gnu_cxx17__normal_iteratorIPS0_S2_EEDpOT_+0x199>
    3d7f:	48 8b 7d 90          	mov    -0x70(%rbp),%rdi
    3d83:	48 8b 75 b8          	mov    -0x48(%rbp),%rsi
    3d87:	48 6b 45 c8 18       	imul   $0x18,-0x38(%rbp),%rax
    3d8c:	48 01 c6             	add    %rax,%rsi
    3d8f:	e8 ac 08 00 00       	call   4640 <_ZNSt16allocator_traitsISaI6CSVRowEE7destroyIS0_EEvRS1_PT_>
    3d94:	e9 55 00 00 00       	jmp    3dee <_ZNSt6vectorI6CSVRowSaIS0_EE17_M_realloc_insertIJRKS0_EEEvN9__gnu_cxx17__normal_iteratorIPS0_S2_EEDpOT_+0x1ee>
    3d99:	48 8b 7d 90          	mov    -0x70(%rbp),%rdi
    3d9d:	48 8b 45 b8          	mov    -0x48(%rbp),%rax
    3da1:	48 89 85 50 ff ff ff 	mov    %rax,-0xb0(%rbp)
    3da8:	48 8b 45 b0          	mov    -0x50(%rbp),%rax
    3dac:	48 89 85 58 ff ff ff 	mov    %rax,-0xa8(%rbp)
    3db3:	e8 18 f2 ff ff       	call   2fd0 <_ZNSt12_Vector_baseI6CSVRowSaIS0_EE19_M_get_Tp_allocatorEv>
    3db8:	48 8b bd 50 ff ff ff 	mov    -0xb0(%rbp),%rdi
    3dbf:	48 8b b5 58 ff ff ff 	mov    -0xa8(%rbp),%rsi
    3dc6:	48 89 c2             	mov    %rax,%rdx
    3dc9:	e8 d2 f1 ff ff       	call   2fa0 <_ZSt8_DestroyIP6CSVRowS0_EvT_S2_RSaIT0_E>
    3dce:	e9 00 00 00 00       	jmp    3dd3 <_ZNSt6vectorI6CSVRowSaIS0_EE17_M_realloc_insertIJRKS0_EEEvN9__gnu_cxx17__normal_iteratorIPS0_S2_EEDpOT_+0x1d3>
    3dd3:	e9 16 00 00 00       	jmp    3dee <_ZNSt6vectorI6CSVRowSaIS0_EE17_M_realloc_insertIJRKS0_EEEvN9__gnu_cxx17__normal_iteratorIPS0_S2_EEDpOT_+0x1ee>
    3dd8:	48 89 c1             	mov    %rax,%rcx
    3ddb:	89 d0                	mov    %edx,%eax
    3ddd:	48 89 4d a8          	mov    %rcx,-0x58(%rbp)
    3de1:	89 45 a4             	mov    %eax,-0x5c(%rbp)
    3de4:	e8 b7 e3 ff ff       	call   21a0 <__cxa_end_catch@plt>
    3de9:	e9 20 00 00 00       	jmp    3e0e <_ZNSt6vectorI6CSVRowSaIS0_EE17_M_realloc_insertIJRKS0_EEEvN9__gnu_cxx17__normal_iteratorIPS0_S2_EEDpOT_+0x20e>
    3dee:	48 8b 7d 90          	mov    -0x70(%rbp),%rdi
    3df2:	48 8b 75 b8          	mov    -0x48(%rbp),%rsi
    3df6:	48 8b 55 e0          	mov    -0x20(%rbp),%rdx
    3dfa:	e8 01 f3 ff ff       	call   3100 <_ZNSt12_Vector_baseI6CSVRowSaIS0_EE13_M_deallocateEPS0_m>
    3dff:	e9 00 00 00 00       	jmp    3e04 <_ZNSt6vectorI6CSVRowSaIS0_EE17_M_realloc_insertIJRKS0_EEEvN9__gnu_cxx17__normal_iteratorIPS0_S2_EEDpOT_+0x204>
    3e04:	e8 57 e3 ff ff       	call   2160 <__cxa_rethrow@plt>
    3e09:	e9 6a 00 00 00       	jmp    3e78 <_ZNSt6vectorI6CSVRowSaIS0_EE17_M_realloc_insertIJRKS0_EEEvN9__gnu_cxx17__normal_iteratorIPS0_S2_EEDpOT_+0x278>
    3e0e:	e9 54 00 00 00       	jmp    3e67 <_ZNSt6vectorI6CSVRowSaIS0_EE17_M_realloc_insertIJRKS0_EEEvN9__gnu_cxx17__normal_iteratorIPS0_S2_EEDpOT_+0x267>
    3e13:	48 8b 45 90          	mov    -0x70(%rbp),%rax
    3e17:	48 89 c7             	mov    %rax,%rdi
    3e1a:	48 8b 75 d8          	mov    -0x28(%rbp),%rsi
    3e1e:	48 8b 40 10          	mov    0x10(%rax),%rax
    3e22:	48 8b 4d d8          	mov    -0x28(%rbp),%rcx
    3e26:	48 29 c8             	sub    %rcx,%rax
    3e29:	b9 18 00 00 00       	mov    $0x18,%ecx
    3e2e:	48 99                	cqto   
    3e30:	48 f7 f9             	idiv   %rcx
    3e33:	48 89 c2             	mov    %rax,%rdx
    3e36:	e8 c5 f2 ff ff       	call   3100 <_ZNSt12_Vector_baseI6CSVRowSaIS0_EE13_M_deallocateEPS0_m>
    3e3b:	48 8b 45 90          	mov    -0x70(%rbp),%rax
    3e3f:	48 8b 4d b8          	mov    -0x48(%rbp),%rcx
    3e43:	48 89 08             	mov    %rcx,(%rax)
    3e46:	48 8b 4d b0          	mov    -0x50(%rbp),%rcx
    3e4a:	48 89 48 08          	mov    %rcx,0x8(%rax)
    3e4e:	48 8b 4d b8          	mov    -0x48(%rbp),%rcx
    3e52:	48 6b 55 e0 18       	imul   $0x18,-0x20(%rbp),%rdx
    3e57:	48 01 d1             	add    %rdx,%rcx
    3e5a:	48 89 48 10          	mov    %rcx,0x10(%rax)
    3e5e:	48 81 c4 b0 00 00 00 	add    $0xb0,%rsp
    3e65:	5d                   	pop    %rbp
    3e66:	c3                   	ret    
    3e67:	48 8b 7d a8          	mov    -0x58(%rbp),%rdi
    3e6b:	e8 40 e3 ff ff       	call   21b0 <_Unwind_Resume@plt>
    3e70:	48 89 c7             	mov    %rax,%rdi
    3e73:	e8 98 ef ff ff       	call   2e10 <__clang_call_terminate>
    3e78:	0f 1f 84 00 00 00 00 	nopl   0x0(%rax,%rax,1)
    3e7f:	00 

0000000000003e80 <_ZN9__gnu_cxx13new_allocatorI6CSVRowE9constructIS1_JRKS1_EEEvPT_DpOT0_>:
    3e80:	55                   	push   %rbp
    3e81:	48 89 e5             	mov    %rsp,%rbp
    3e84:	48 83 ec 20          	sub    $0x20,%rsp
    3e88:	48 89 7d f8          	mov    %rdi,-0x8(%rbp)
    3e8c:	48 89 75 f0          	mov    %rsi,-0x10(%rbp)
    3e90:	48 89 55 e8          	mov    %rdx,-0x18(%rbp)
    3e94:	48 8b 45 f0          	mov    -0x10(%rbp),%rax
    3e98:	48 89 45 e0          	mov    %rax,-0x20(%rbp)
    3e9c:	48 8b 7d e8          	mov    -0x18(%rbp),%rdi
    3ea0:	e8 1b 00 00 00       	call   3ec0 <_ZSt7forwardIRK6CSVRowEOT_RNSt16remove_referenceIS3_E4typeE>
    3ea5:	48 8b 7d e0          	mov    -0x20(%rbp),%rdi
    3ea9:	48 89 c6             	mov    %rax,%rsi
    3eac:	e8 1f 00 00 00       	call   3ed0 <_ZN6CSVRowC2ERKS_>
    3eb1:	48 83 c4 20          	add    $0x20,%rsp
    3eb5:	5d                   	pop    %rbp
    3eb6:	c3                   	ret    
    3eb7:	66 0f 1f 84 00 00 00 	nopw   0x0(%rax,%rax,1)
    3ebe:	00 00 

0000000000003ec0 <_ZSt7forwardIRK6CSVRowEOT_RNSt16remove_referenceIS3_E4typeE>:
    3ec0:	55                   	push   %rbp
    3ec1:	48 89 e5             	mov    %rsp,%rbp
    3ec4:	48 89 7d f8          	mov    %rdi,-0x8(%rbp)
    3ec8:	48 8b 45 f8          	mov    -0x8(%rbp),%rax
    3ecc:	5d                   	pop    %rbp
    3ecd:	c3                   	ret    
    3ece:	66 90                	xchg   %ax,%ax

0000000000003ed0 <_ZN6CSVRowC2ERKS_>:
    3ed0:	55                   	push   %rbp
    3ed1:	48 89 e5             	mov    %rsp,%rbp
    3ed4:	48 83 ec 10          	sub    $0x10,%rsp
    3ed8:	48 89 7d f8          	mov    %rdi,-0x8(%rbp)
    3edc:	48 89 75 f0          	mov    %rsi,-0x10(%rbp)
    3ee0:	48 8b 7d f8          	mov    -0x8(%rbp),%rdi
    3ee4:	48 8b 75 f0          	mov    -0x10(%rbp),%rsi
    3ee8:	e8 13 00 00 00       	call   3f00 <_ZNSt6vectorINSt7__cxx1112basic_stringIcSt11char_traitsIcESaIcEEESaIS5_EEC2ERKS7_>
    3eed:	48 83 c4 10          	add    $0x10,%rsp
    3ef1:	5d                   	pop    %rbp
    3ef2:	c3                   	ret    
    3ef3:	66 2e 0f 1f 84 00 00 	cs nopw 0x0(%rax,%rax,1)
    3efa:	00 00 00 
    3efd:	0f 1f 00             	nopl   (%rax)

0000000000003f00 <_ZNSt6vectorINSt7__cxx1112basic_stringIcSt11char_traitsIcESaIcEEESaIS5_EEC2ERKS7_>:
    3f00:	55                   	push   %rbp
    3f01:	48 89 e5             	mov    %rsp,%rbp
    3f04:	48 83 ec 60          	sub    $0x60,%rsp
    3f08:	48 89 7d f8          	mov    %rdi,-0x8(%rbp)
    3f0c:	48 89 75 f0          	mov    %rsi,-0x10(%rbp)
    3f10:	48 8b 45 f8          	mov    -0x8(%rbp),%rax
    3f14:	48 89 45 b0          	mov    %rax,-0x50(%rbp)
    3f18:	48 8b 7d f0          	mov    -0x10(%rbp),%rdi
    3f1c:	e8 1f f8 ff ff       	call   3740 <_ZNKSt6vectorINSt7__cxx1112basic_stringIcSt11char_traitsIcESaIcEEESaIS5_EE4sizeEv>
    3f21:	48 89 45 b8          	mov    %rax,-0x48(%rbp)
    3f25:	48 8b 7d f0          	mov    -0x10(%rbp),%rdi
    3f29:	e8 d2 f8 ff ff       	call   3800 <_ZNKSt12_Vector_baseINSt7__cxx1112basic_stringIcSt11char_traitsIcESaIcEEESaIS5_EE19_M_get_Tp_allocatorEv>
    3f2e:	48 89 c6             	mov    %rax,%rsi
    3f31:	48 8d 7d e8          	lea    -0x18(%rbp),%rdi
    3f35:	48 89 7d c0          	mov    %rdi,-0x40(%rbp)
    3f39:	e8 b2 00 00 00       	call   3ff0 <_ZN9__gnu_cxx14__alloc_traitsISaINSt7__cxx1112basic_stringIcSt11char_traitsIcESaIcEEEES6_E17_S_select_on_copyERKS7_>
    3f3e:	48 8b 7d b0          	mov    -0x50(%rbp),%rdi
    3f42:	48 8b 75 b8          	mov    -0x48(%rbp),%rsi
    3f46:	48 8b 55 c0          	mov    -0x40(%rbp),%rdx
    3f4a:	e8 d1 00 00 00       	call   4020 <_ZNSt12_Vector_baseINSt7__cxx1112basic_stringIcSt11char_traitsIcESaIcEEESaIS5_EEC2EmRKS6_>
    3f4f:	e9 00 00 00 00       	jmp    3f54 <_ZNSt6vectorINSt7__cxx1112basic_stringIcSt11char_traitsIcESaIcEEESaIS5_EEC2ERKS7_+0x54>
    3f54:	48 8d 7d e8          	lea    -0x18(%rbp),%rdi
    3f58:	e8 23 01 00 00       	call   4080 <_ZNSaINSt7__cxx1112basic_stringIcSt11char_traitsIcESaIcEEEED2Ev>
    3f5d:	48 8b 7d f0          	mov    -0x10(%rbp),%rdi
    3f61:	e8 7a 01 00 00       	call   40e0 <_ZNKSt6vectorINSt7__cxx1112basic_stringIcSt11char_traitsIcESaIcEEESaIS5_EE5beginEv>
    3f66:	48 89 45 d0          	mov    %rax,-0x30(%rbp)
    3f6a:	48 8b 7d f0          	mov    -0x10(%rbp),%rdi
    3f6e:	e8 9d 01 00 00       	call   4110 <_ZNKSt6vectorINSt7__cxx1112basic_stringIcSt11char_traitsIcESaIcEEESaIS5_EE3endEv>
    3f73:	48 8b 7d b0          	mov    -0x50(%rbp),%rdi
    3f77:	48 89 45 c8          	mov    %rax,-0x38(%rbp)
    3f7b:	48 8b 07             	mov    (%rdi),%rax
    3f7e:	48 89 45 a0          	mov    %rax,-0x60(%rbp)
    3f82:	e8 19 ee ff ff       	call   2da0 <_ZNSt12_Vector_baseINSt7__cxx1112basic_stringIcSt11char_traitsIcESaIcEEESaIS5_EE19_M_get_Tp_allocatorEv>
    3f87:	48 8b 55 a0          	mov    -0x60(%rbp),%rdx
    3f8b:	48 89 c1             	mov    %rax,%rcx
    3f8e:	48 8b 7d d0          	mov    -0x30(%rbp),%rdi
    3f92:	48 8b 75 c8          	mov    -0x38(%rbp),%rsi
    3f96:	e8 05 01 00 00       	call   40a0 <_ZSt22__uninitialized_copy_aIN9__gnu_cxx17__normal_iteratorIPKNSt7__cxx1112basic_stringIcSt11char_traitsIcESaIcEEESt6vectorIS7_SaIS7_EEEEPS7_S7_ET0_T_SG_SF_RSaIT1_E>
    3f9b:	48 89 45 a8          	mov    %rax,-0x58(%rbp)
    3f9f:	e9 00 00 00 00       	jmp    3fa4 <_ZNSt6vectorINSt7__cxx1112basic_stringIcSt11char_traitsIcESaIcEEESaIS5_EEC2ERKS7_+0xa4>
    3fa4:	48 8b 45 b0          	mov    -0x50(%rbp),%rax
    3fa8:	48 8b 4d a8          	mov    -0x58(%rbp),%rcx
    3fac:	48 89 48 08          	mov    %rcx,0x8(%rax)
    3fb0:	48 83 c4 60          	add    $0x60,%rsp
    3fb4:	5d                   	pop    %rbp
    3fb5:	c3                   	ret    
    3fb6:	48 89 c1             	mov    %rax,%rcx
    3fb9:	89 d0                	mov    %edx,%eax
    3fbb:	48 89 4d e0          	mov    %rcx,-0x20(%rbp)
    3fbf:	89 45 dc             	mov    %eax,-0x24(%rbp)
    3fc2:	48 8d 7d e8          	lea    -0x18(%rbp),%rdi
    3fc6:	e8 b5 00 00 00       	call   4080 <_ZNSaINSt7__cxx1112basic_stringIcSt11char_traitsIcESaIcEEEED2Ev>
    3fcb:	e9 15 00 00 00       	jmp    3fe5 <_ZNSt6vectorINSt7__cxx1112basic_stringIcSt11char_traitsIcESaIcEEESaIS5_EEC2ERKS7_+0xe5>
    3fd0:	48 8b 7d b0          	mov    -0x50(%rbp),%rdi
    3fd4:	48 89 c1             	mov    %rax,%rcx
    3fd7:	89 d0                	mov    %edx,%eax
    3fd9:	48 89 4d e0          	mov    %rcx,-0x20(%rbp)
    3fdd:	89 45 dc             	mov    %eax,-0x24(%rbp)
    3fe0:	e8 cb ed ff ff       	call   2db0 <_ZNSt12_Vector_baseINSt7__cxx1112basic_stringIcSt11char_traitsIcESaIcEEESaIS5_EED2Ev>
    3fe5:	48 8b 7d e0          	mov    -0x20(%rbp),%rdi
    3fe9:	e8 c2 e1 ff ff       	call   21b0 <_Unwind_Resume@plt>
    3fee:	66 90                	xchg   %ax,%ax

0000000000003ff0 <_ZN9__gnu_cxx14__alloc_traitsISaINSt7__cxx1112basic_stringIcSt11char_traitsIcESaIcEEEES6_E17_S_select_on_copyERKS7_>:
    3ff0:	55                   	push   %rbp
    3ff1:	48 89 e5             	mov    %rsp,%rbp
    3ff4:	48 83 ec 20          	sub    $0x20,%rsp
    3ff8:	48 89 f8             	mov    %rdi,%rax
    3ffb:	48 89 45 e8          	mov    %rax,-0x18(%rbp)
    3fff:	48 89 f8             	mov    %rdi,%rax
    4002:	48 89 45 f8          	mov    %rax,-0x8(%rbp)
    4006:	48 89 75 f0          	mov    %rsi,-0x10(%rbp)
    400a:	48 8b 75 f0          	mov    -0x10(%rbp),%rsi
    400e:	e8 2d 01 00 00       	call   4140 <_ZNSt16allocator_traitsISaINSt7__cxx1112basic_stringIcSt11char_traitsIcESaIcEEEEE37select_on_container_copy_constructionERKS6_>
    4013:	48 8b 45 e8          	mov    -0x18(%rbp),%rax
    4017:	48 83 c4 20          	add    $0x20,%rsp
    401b:	5d                   	pop    %rbp
    401c:	c3                   	ret    
    401d:	0f 1f 00             	nopl   (%rax)

0000000000004020 <_ZNSt12_Vector_baseINSt7__cxx1112basic_stringIcSt11char_traitsIcESaIcEEESaIS5_EEC2EmRKS6_>:
    4020:	55                   	push   %rbp
    4021:	48 89 e5             	mov    %rsp,%rbp
    4024:	48 83 ec 30          	sub    $0x30,%rsp
    4028:	48 89 7d f8          	mov    %rdi,-0x8(%rbp)
    402c:	48 89 75 f0          	mov    %rsi,-0x10(%rbp)
    4030:	48 89 55 e8          	mov    %rdx,-0x18(%rbp)
    4034:	48 8b 7d f8          	mov    -0x8(%rbp),%rdi
    4038:	48 89 7d d0          	mov    %rdi,-0x30(%rbp)
    403c:	48 8b 75 e8          	mov    -0x18(%rbp),%rsi
    4040:	e8 6b 01 00 00       	call   41b0 <_ZNSt12_Vector_baseINSt7__cxx1112basic_stringIcSt11char_traitsIcESaIcEEESaIS5_EE12_Vector_implC2ERKS6_>
    4045:	48 8b 7d d0          	mov    -0x30(%rbp),%rdi
    4049:	48 8b 75 f0          	mov    -0x10(%rbp),%rsi
    404d:	e8 8e 01 00 00       	call   41e0 <_ZNSt12_Vector_baseINSt7__cxx1112basic_stringIcSt11char_traitsIcESaIcEEESaIS5_EE17_M_create_storageEm>
    4052:	e9 00 00 00 00       	jmp    4057 <_ZNSt12_Vector_baseINSt7__cxx1112basic_stringIcSt11char_traitsIcESaIcEEESaIS5_EEC2EmRKS6_+0x37>
    4057:	48 83 c4 30          	add    $0x30,%rsp
    405b:	5d                   	pop    %rbp
    405c:	c3                   	ret    
    405d:	48 8b 7d d0          	mov    -0x30(%rbp),%rdi
    4061:	48 89 c1             	mov    %rax,%rcx
    4064:	89 d0                	mov    %edx,%eax
    4066:	48 89 4d e0          	mov    %rcx,-0x20(%rbp)
    406a:	89 45 dc             	mov    %eax,-0x24(%rbp)
    406d:	e8 9e ee ff ff       	call   2f10 <_ZNSt12_Vector_baseINSt7__cxx1112basic_stringIcSt11char_traitsIcESaIcEEESaIS5_EE12_Vector_implD2Ev>
    4072:	48 8b 7d e0          	mov    -0x20(%rbp),%rdi
    4076:	e8 35 e1 ff ff       	call   21b0 <_Unwind_Resume@plt>
    407b:	0f 1f 44 00 00       	nopl   0x0(%rax,%rax,1)

0000000000004080 <_ZNSaINSt7__cxx1112basic_stringIcSt11char_traitsIcESaIcEEEED2Ev>:
    4080:	55                   	push   %rbp
    4081:	48 89 e5             	mov    %rsp,%rbp
    4084:	48 83 ec 10          	sub    $0x10,%rsp
    4088:	48 89 7d f8          	mov    %rdi,-0x8(%rbp)
    408c:	48 8b 7d f8          	mov    -0x8(%rbp),%rdi
    4090:	e8 fb ee ff ff       	call   2f90 <_ZN9__gnu_cxx13new_allocatorINSt7__cxx1112basic_stringIcSt11char_traitsIcESaIcEEEED2Ev>
    4095:	48 83 c4 10          	add    $0x10,%rsp
    4099:	5d                   	pop    %rbp
    409a:	c3                   	ret    
    409b:	0f 1f 44 00 00       	nopl   0x0(%rax,%rax,1)

00000000000040a0 <_ZSt22__uninitialized_copy_aIN9__gnu_cxx17__normal_iteratorIPKNSt7__cxx1112basic_stringIcSt11char_traitsIcESaIcEEESt6vectorIS7_SaIS7_EEEEPS7_S7_ET0_T_SG_SF_RSaIT1_E>:
    40a0:	55                   	push   %rbp
    40a1:	48 89 e5             	mov    %rsp,%rbp
    40a4:	48 83 ec 30          	sub    $0x30,%rsp
    40a8:	48 89 7d f8          	mov    %rdi,-0x8(%rbp)
    40ac:	48 89 75 f0          	mov    %rsi,-0x10(%rbp)
    40b0:	48 89 55 e8          	mov    %rdx,-0x18(%rbp)
    40b4:	48 89 4d e0          	mov    %rcx,-0x20(%rbp)
    40b8:	48 8b 45 f8          	mov    -0x8(%rbp),%rax
    40bc:	48 89 45 d8          	mov    %rax,-0x28(%rbp)
    40c0:	48 8b 45 f0          	mov    -0x10(%rbp),%rax
    40c4:	48 89 45 d0          	mov    %rax,-0x30(%rbp)
    40c8:	48 8b 55 e8          	mov    -0x18(%rbp),%rdx
    40cc:	48 8b 7d d8          	mov    -0x28(%rbp),%rdi
    40d0:	48 8b 75 d0          	mov    -0x30(%rbp),%rsi
    40d4:	e8 57 01 00 00       	call   4230 <_ZSt18uninitialized_copyIN9__gnu_cxx17__normal_iteratorIPKNSt7__cxx1112basic_stringIcSt11char_traitsIcESaIcEEESt6vectorIS7_SaIS7_EEEEPS7_ET0_T_SG_SF_>
    40d9:	48 83 c4 30          	add    $0x30,%rsp
    40dd:	5d                   	pop    %rbp
    40de:	c3                   	ret    
    40df:	90                   	nop

00000000000040e0 <_ZNKSt6vectorINSt7__cxx1112basic_stringIcSt11char_traitsIcESaIcEEESaIS5_EE5beginEv>:
    40e0:	55                   	push   %rbp
    40e1:	48 89 e5             	mov    %rsp,%rbp
    40e4:	48 83 ec 10          	sub    $0x10,%rsp
    40e8:	48 89 7d f0          	mov    %rdi,-0x10(%rbp)
    40ec:	48 8b 75 f0          	mov    -0x10(%rbp),%rsi
    40f0:	48 8d 7d f8          	lea    -0x8(%rbp),%rdi
    40f4:	e8 47 03 00 00       	call   4440 <_ZN9__gnu_cxx17__normal_iteratorIPKNSt7__cxx1112basic_stringIcSt11char_traitsIcESaIcEEESt6vectorIS6_SaIS6_EEEC2ERKS8_>
    40f9:	48 8b 45 f8          	mov    -0x8(%rbp),%rax
    40fd:	48 83 c4 10          	add    $0x10,%rsp
    4101:	5d                   	pop    %rbp
    4102:	c3                   	ret    
    4103:	66 2e 0f 1f 84 00 00 	cs nopw 0x0(%rax,%rax,1)
    410a:	00 00 00 
    410d:	0f 1f 00             	nopl   (%rax)

0000000000004110 <_ZNKSt6vectorINSt7__cxx1112basic_stringIcSt11char_traitsIcESaIcEEESaIS5_EE3endEv>:
    4110:	55                   	push   %rbp
    4111:	48 89 e5             	mov    %rsp,%rbp
    4114:	48 83 ec 10          	sub    $0x10,%rsp
    4118:	48 89 7d f0          	mov    %rdi,-0x10(%rbp)
    411c:	48 8b 75 f0          	mov    -0x10(%rbp),%rsi
    4120:	48 83 c6 08          	add    $0x8,%rsi
    4124:	48 8d 7d f8          	lea    -0x8(%rbp),%rdi
    4128:	e8 13 03 00 00       	call   4440 <_ZN9__gnu_cxx17__normal_iteratorIPKNSt7__cxx1112basic_stringIcSt11char_traitsIcESaIcEEESt6vectorIS6_SaIS6_EEEC2ERKS8_>
    412d:	48 8b 45 f8          	mov    -0x8(%rbp),%rax
    4131:	48 83 c4 10          	add    $0x10,%rsp
    4135:	5d                   	pop    %rbp
    4136:	c3                   	ret    
    4137:	66 0f 1f 84 00 00 00 	nopw   0x0(%rax,%rax,1)
    413e:	00 00 

0000000000004140 <_ZNSt16allocator_traitsISaINSt7__cxx1112basic_stringIcSt11char_traitsIcESaIcEEEEE37select_on_container_copy_constructionERKS6_>:
    4140:	55                   	push   %rbp
    4141:	48 89 e5             	mov    %rsp,%rbp
    4144:	48 83 ec 20          	sub    $0x20,%rsp
    4148:	48 89 f8             	mov    %rdi,%rax
    414b:	48 89 45 e8          	mov    %rax,-0x18(%rbp)
    414f:	48 89 f8             	mov    %rdi,%rax
    4152:	48 89 45 f8          	mov    %rax,-0x8(%rbp)
    4156:	48 89 75 f0          	mov    %rsi,-0x10(%rbp)
    415a:	48 8b 75 f0          	mov    -0x10(%rbp),%rsi
    415e:	e8 0d 00 00 00       	call   4170 <_ZNSaINSt7__cxx1112basic_stringIcSt11char_traitsIcESaIcEEEEC2ERKS5_>
    4163:	48 8b 45 e8          	mov    -0x18(%rbp),%rax
    4167:	48 83 c4 20          	add    $0x20,%rsp
    416b:	5d                   	pop    %rbp
    416c:	c3                   	ret    
    416d:	0f 1f 00             	nopl   (%rax)

0000000000004170 <_ZNSaINSt7__cxx1112basic_stringIcSt11char_traitsIcESaIcEEEEC2ERKS5_>:
    4170:	55                   	push   %rbp
    4171:	48 89 e5             	mov    %rsp,%rbp
    4174:	48 83 ec 10          	sub    $0x10,%rsp
    4178:	48 89 7d f8          	mov    %rdi,-0x8(%rbp)
    417c:	48 89 75 f0          	mov    %rsi,-0x10(%rbp)
    4180:	48 8b 7d f8          	mov    -0x8(%rbp),%rdi
    4184:	48 8b 75 f0          	mov    -0x10(%rbp),%rsi
    4188:	e8 13 00 00 00       	call   41a0 <_ZN9__gnu_cxx13new_allocatorINSt7__cxx1112basic_stringIcSt11char_traitsIcESaIcEEEEC2ERKS7_>
    418d:	48 83 c4 10          	add    $0x10,%rsp
    4191:	5d                   	pop    %rbp
    4192:	c3                   	ret    
    4193:	66 2e 0f 1f 84 00 00 	cs nopw 0x0(%rax,%rax,1)
    419a:	00 00 00 
    419d:	0f 1f 00             	nopl   (%rax)

00000000000041a0 <_ZN9__gnu_cxx13new_allocatorINSt7__cxx1112basic_stringIcSt11char_traitsIcESaIcEEEEC2ERKS7_>:
    41a0:	55                   	push   %rbp
    41a1:	48 89 e5             	mov    %rsp,%rbp
    41a4:	48 89 7d f8          	mov    %rdi,-0x8(%rbp)
    41a8:	48 89 75 f0          	mov    %rsi,-0x10(%rbp)
    41ac:	5d                   	pop    %rbp
    41ad:	c3                   	ret    
    41ae:	66 90                	xchg   %ax,%ax

00000000000041b0 <_ZNSt12_Vector_baseINSt7__cxx1112basic_stringIcSt11char_traitsIcESaIcEEESaIS5_EE12_Vector_implC2ERKS6_>:
    41b0:	55                   	push   %rbp
    41b1:	48 89 e5             	mov    %rsp,%rbp
    41b4:	48 83 ec 20          	sub    $0x20,%rsp
    41b8:	48 89 7d f8          	mov    %rdi,-0x8(%rbp)
    41bc:	48 89 75 f0          	mov    %rsi,-0x10(%rbp)
    41c0:	48 8b 7d f8          	mov    -0x8(%rbp),%rdi
    41c4:	48 89 7d e8          	mov    %rdi,-0x18(%rbp)
    41c8:	48 8b 75 f0          	mov    -0x10(%rbp),%rsi
    41cc:	e8 9f ff ff ff       	call   4170 <_ZNSaINSt7__cxx1112basic_stringIcSt11char_traitsIcESaIcEEEEC2ERKS5_>
    41d1:	48 8b 7d e8          	mov    -0x18(%rbp),%rdi
    41d5:	e8 e6 ea ff ff       	call   2cc0 <_ZNSt12_Vector_baseINSt7__cxx1112basic_stringIcSt11char_traitsIcESaIcEEESaIS5_EE17_Vector_impl_dataC2Ev>
    41da:	48 83 c4 20          	add    $0x20,%rsp
    41de:	5d                   	pop    %rbp
    41df:	c3                   	ret    

00000000000041e0 <_ZNSt12_Vector_baseINSt7__cxx1112basic_stringIcSt11char_traitsIcESaIcEEESaIS5_EE17_M_create_storageEm>:
    41e0:	55                   	push   %rbp
    41e1:	48 89 e5             	mov    %rsp,%rbp
    41e4:	48 83 ec 20          	sub    $0x20,%rsp
    41e8:	48 89 7d f8          	mov    %rdi,-0x8(%rbp)
    41ec:	48 89 75 f0          	mov    %rsi,-0x10(%rbp)
    41f0:	48 8b 7d f8          	mov    -0x8(%rbp),%rdi
    41f4:	48 89 7d e8          	mov    %rdi,-0x18(%rbp)
    41f8:	48 8b 75 f0          	mov    -0x10(%rbp),%rsi
    41fc:	e8 3f f4 ff ff       	call   3640 <_ZNSt12_Vector_baseINSt7__cxx1112basic_stringIcSt11char_traitsIcESaIcEEESaIS5_EE11_M_allocateEm>
    4201:	48 89 c1             	mov    %rax,%rcx
    4204:	48 8b 45 e8          	mov    -0x18(%rbp),%rax
    4208:	48 89 08             	mov    %rcx,(%rax)
    420b:	48 8b 08             	mov    (%rax),%rcx
    420e:	48 89 48 08          	mov    %rcx,0x8(%rax)
    4212:	48 8b 08             	mov    (%rax),%rcx
    4215:	48 8b 55 f0          	mov    -0x10(%rbp),%rdx
    4219:	48 c1 e2 05          	shl    $0x5,%rdx
    421d:	48 01 d1             	add    %rdx,%rcx
    4220:	48 89 48 10          	mov    %rcx,0x10(%rax)
    4224:	48 83 c4 20          	add    $0x20,%rsp
    4228:	5d                   	pop    %rbp
    4229:	c3                   	ret    
    422a:	66 0f 1f 44 00 00    	nopw   0x0(%rax,%rax,1)

0000000000004230 <_ZSt18uninitialized_copyIN9__gnu_cxx17__normal_iteratorIPKNSt7__cxx1112basic_stringIcSt11char_traitsIcESaIcEEESt6vectorIS7_SaIS7_EEEEPS7_ET0_T_SG_SF_>:
    4230:	55                   	push   %rbp
    4231:	48 89 e5             	mov    %rsp,%rbp
    4234:	48 83 ec 30          	sub    $0x30,%rsp
    4238:	48 89 7d f8          	mov    %rdi,-0x8(%rbp)
    423c:	48 89 75 f0          	mov    %rsi,-0x10(%rbp)
    4240:	48 89 55 e8          	mov    %rdx,-0x18(%rbp)
    4244:	c6 45 e7 01          	movb   $0x1,-0x19(%rbp)
    4248:	48 8b 45 f8          	mov    -0x8(%rbp),%rax
    424c:	48 89 45 d8          	mov    %rax,-0x28(%rbp)
    4250:	48 8b 45 f0          	mov    -0x10(%rbp),%rax
    4254:	48 89 45 d0          	mov    %rax,-0x30(%rbp)
    4258:	48 8b 55 e8          	mov    -0x18(%rbp),%rdx
    425c:	48 8b 7d d8          	mov    -0x28(%rbp),%rdi
    4260:	48 8b 75 d0          	mov    -0x30(%rbp),%rsi
    4264:	e8 07 00 00 00       	call   4270 <_ZNSt20__uninitialized_copyILb0EE13__uninit_copyIN9__gnu_cxx17__normal_iteratorIPKNSt7__cxx1112basic_stringIcSt11char_traitsIcESaIcEEESt6vectorIS9_SaIS9_EEEEPS9_EET0_T_SI_SH_>
    4269:	48 83 c4 30          	add    $0x30,%rsp
    426d:	5d                   	pop    %rbp
    426e:	c3                   	ret    
    426f:	90                   	nop

0000000000004270 <_ZNSt20__uninitialized_copyILb0EE13__uninit_copyIN9__gnu_cxx17__normal_iteratorIPKNSt7__cxx1112basic_stringIcSt11char_traitsIcESaIcEEESt6vectorIS9_SaIS9_EEEEPS9_EET0_T_SI_SH_>:
    4270:	55                   	push   %rbp
    4271:	48 89 e5             	mov    %rsp,%rbp
    4274:	48 83 ec 40          	sub    $0x40,%rsp
    4278:	48 89 7d f8          	mov    %rdi,-0x8(%rbp)
    427c:	48 89 75 f0          	mov    %rsi,-0x10(%rbp)
    4280:	48 89 55 e8          	mov    %rdx,-0x18(%rbp)
    4284:	48 8b 45 e8          	mov    -0x18(%rbp),%rax
    4288:	48 89 45 e0          	mov    %rax,-0x20(%rbp)
    428c:	48 8d 7d f8          	lea    -0x8(%rbp),%rdi
    4290:	48 8d 75 f0          	lea    -0x10(%rbp),%rsi
    4294:	e8 c7 00 00 00       	call   4360 <_ZN9__gnu_cxxneIPKNSt7__cxx1112basic_stringIcSt11char_traitsIcESaIcEEESt6vectorIS6_SaIS6_EEEEbRKNS_17__normal_iteratorIT_T0_EESH_>
    4299:	a8 01                	test   $0x1,%al
    429b:	0f 85 05 00 00 00    	jne    42a6 <_ZNSt20__uninitialized_copyILb0EE13__uninit_copyIN9__gnu_cxx17__normal_iteratorIPKNSt7__cxx1112basic_stringIcSt11char_traitsIcESaIcEEESt6vectorIS9_SaIS9_EEEEPS9_EET0_T_SI_SH_+0x36>
    42a1:	e9 77 00 00 00       	jmp    431d <_ZNSt20__uninitialized_copyILb0EE13__uninit_copyIN9__gnu_cxx17__normal_iteratorIPKNSt7__cxx1112basic_stringIcSt11char_traitsIcESaIcEEESt6vectorIS9_SaIS9_EEEEPS9_EET0_T_SI_SH_+0xad>
    42a6:	48 8b 7d e0          	mov    -0x20(%rbp),%rdi
    42aa:	e8 11 ec ff ff       	call   2ec0 <_ZSt11__addressofINSt7__cxx1112basic_stringIcSt11char_traitsIcESaIcEEEEPT_RS6_>
    42af:	48 89 45 c8          	mov    %rax,-0x38(%rbp)
    42b3:	48 8d 7d f8          	lea    -0x8(%rbp),%rdi
    42b7:	e8 34 01 00 00       	call   43f0 <_ZNK9__gnu_cxx17__normal_iteratorIPKNSt7__cxx1112basic_stringIcSt11char_traitsIcESaIcEEESt6vectorIS6_SaIS6_EEEdeEv>
    42bc:	48 8b 7d c8          	mov    -0x38(%rbp),%rdi
    42c0:	48 89 c6             	mov    %rax,%rsi
    42c3:	e8 e8 00 00 00       	call   43b0 <_ZSt10_ConstructINSt7__cxx1112basic_stringIcSt11char_traitsIcESaIcEEEJRKS5_EEvPT_DpOT0_>
    42c8:	e9 00 00 00 00       	jmp    42cd <_ZNSt20__uninitialized_copyILb0EE13__uninit_copyIN9__gnu_cxx17__normal_iteratorIPKNSt7__cxx1112basic_stringIcSt11char_traitsIcESaIcEEESt6vectorIS9_SaIS9_EEEEPS9_EET0_T_SI_SH_+0x5d>
    42cd:	e9 00 00 00 00       	jmp    42d2 <_ZNSt20__uninitialized_copyILb0EE13__uninit_copyIN9__gnu_cxx17__normal_iteratorIPKNSt7__cxx1112basic_stringIcSt11char_traitsIcESaIcEEESt6vectorIS9_SaIS9_EEEEPS9_EET0_T_SI_SH_+0x62>
    42d2:	48 8d 7d f8          	lea    -0x8(%rbp),%rdi
    42d6:	e8 35 01 00 00       	call   4410 <_ZN9__gnu_cxx17__normal_iteratorIPKNSt7__cxx1112basic_stringIcSt11char_traitsIcESaIcEEESt6vectorIS6_SaIS6_EEEppEv>
    42db:	48 8b 45 e0          	mov    -0x20(%rbp),%rax
    42df:	48 83 c0 20          	add    $0x20,%rax
    42e3:	48 89 45 e0          	mov    %rax,-0x20(%rbp)
    42e7:	e9 a0 ff ff ff       	jmp    428c <_ZNSt20__uninitialized_copyILb0EE13__uninit_copyIN9__gnu_cxx17__normal_iteratorIPKNSt7__cxx1112basic_stringIcSt11char_traitsIcESaIcEEESt6vectorIS9_SaIS9_EEEEPS9_EET0_T_SI_SH_+0x1c>
    42ec:	48 89 c1             	mov    %rax,%rcx
    42ef:	89 d0                	mov    %edx,%eax
    42f1:	48 89 4d d8          	mov    %rcx,-0x28(%rbp)
    42f5:	89 45 d4             	mov    %eax,-0x2c(%rbp)
    42f8:	48 8b 7d d8          	mov    -0x28(%rbp),%rdi
    42fc:	e8 6f dd ff ff       	call   2070 <__cxa_begin_catch@plt>
    4301:	48 8b 7d e8          	mov    -0x18(%rbp),%rdi
    4305:	48 8b 75 e0          	mov    -0x20(%rbp),%rsi
    4309:	e8 12 eb ff ff       	call   2e20 <_ZSt8_DestroyIPNSt7__cxx1112basic_stringIcSt11char_traitsIcESaIcEEEEvT_S7_>
    430e:	e9 00 00 00 00       	jmp    4313 <_ZNSt20__uninitialized_copyILb0EE13__uninit_copyIN9__gnu_cxx17__normal_iteratorIPKNSt7__cxx1112basic_stringIcSt11char_traitsIcESaIcEEESt6vectorIS9_SaIS9_EEEEPS9_EET0_T_SI_SH_+0xa3>
    4313:	e8 48 de ff ff       	call   2160 <__cxa_rethrow@plt>
    4318:	e9 36 00 00 00       	jmp    4353 <_ZNSt20__uninitialized_copyILb0EE13__uninit_copyIN9__gnu_cxx17__normal_iteratorIPKNSt7__cxx1112basic_stringIcSt11char_traitsIcESaIcEEESt6vectorIS9_SaIS9_EEEEPS9_EET0_T_SI_SH_+0xe3>
    431d:	48 8b 45 e0          	mov    -0x20(%rbp),%rax
    4321:	48 83 c4 40          	add    $0x40,%rsp
    4325:	5d                   	pop    %rbp
    4326:	c3                   	ret    
    4327:	48 89 c1             	mov    %rax,%rcx
    432a:	89 d0                	mov    %edx,%eax
    432c:	48 89 4d d8          	mov    %rcx,-0x28(%rbp)
    4330:	89 45 d4             	mov    %eax,-0x2c(%rbp)
    4333:	e8 68 de ff ff       	call   21a0 <__cxa_end_catch@plt>
    4338:	e9 00 00 00 00       	jmp    433d <_ZNSt20__uninitialized_copyILb0EE13__uninit_copyIN9__gnu_cxx17__normal_iteratorIPKNSt7__cxx1112basic_stringIcSt11char_traitsIcESaIcEEESt6vectorIS9_SaIS9_EEEEPS9_EET0_T_SI_SH_+0xcd>
    433d:	e9 00 00 00 00       	jmp    4342 <_ZNSt20__uninitialized_copyILb0EE13__uninit_copyIN9__gnu_cxx17__normal_iteratorIPKNSt7__cxx1112basic_stringIcSt11char_traitsIcESaIcEEESt6vectorIS9_SaIS9_EEEEPS9_EET0_T_SI_SH_+0xd2>
    4342:	48 8b 7d d8          	mov    -0x28(%rbp),%rdi
    4346:	e8 65 de ff ff       	call   21b0 <_Unwind_Resume@plt>
    434b:	48 89 c7             	mov    %rax,%rdi
    434e:	e8 bd ea ff ff       	call   2e10 <__clang_call_terminate>
    4353:	66 2e 0f 1f 84 00 00 	cs nopw 0x0(%rax,%rax,1)
    435a:	00 00 00 
    435d:	0f 1f 00             	nopl   (%rax)

0000000000004360 <_ZN9__gnu_cxxneIPKNSt7__cxx1112basic_stringIcSt11char_traitsIcESaIcEEESt6vectorIS6_SaIS6_EEEEbRKNS_17__normal_iteratorIT_T0_EESH_>:
    4360:	55                   	push   %rbp
    4361:	48 89 e5             	mov    %rsp,%rbp
    4364:	48 83 ec 20          	sub    $0x20,%rsp
    4368:	48 89 7d f8          	mov    %rdi,-0x8(%rbp)
    436c:	48 89 75 f0          	mov    %rsi,-0x10(%rbp)
    4370:	48 8b 7d f8          	mov    -0x8(%rbp),%rdi
    4374:	e8 b7 00 00 00       	call   4430 <_ZNK9__gnu_cxx17__normal_iteratorIPKNSt7__cxx1112basic_stringIcSt11char_traitsIcESaIcEEESt6vectorIS6_SaIS6_EEE4baseEv>
    4379:	48 8b 00             	mov    (%rax),%rax
    437c:	48 89 45 e8          	mov    %rax,-0x18(%rbp)
    4380:	48 8b 7d f0          	mov    -0x10(%rbp),%rdi
    4384:	e8 a7 00 00 00       	call   4430 <_ZNK9__gnu_cxx17__normal_iteratorIPKNSt7__cxx1112basic_stringIcSt11char_traitsIcESaIcEEESt6vectorIS6_SaIS6_EEE4baseEv>
    4389:	48 89 c1             	mov    %rax,%rcx
    438c:	48 8b 45 e8          	mov    -0x18(%rbp),%rax
    4390:	48 3b 01             	cmp    (%rcx),%rax
    4393:	0f 95 c0             	setne  %al
    4396:	24 01                	and    $0x1,%al
    4398:	0f b6 c0             	movzbl %al,%eax
    439b:	48 83 c4 20          	add    $0x20,%rsp
    439f:	5d                   	pop    %rbp
    43a0:	c3                   	ret    
    43a1:	66 2e 0f 1f 84 00 00 	cs nopw 0x0(%rax,%rax,1)
    43a8:	00 00 00 
    43ab:	0f 1f 44 00 00       	nopl   0x0(%rax,%rax,1)

00000000000043b0 <_ZSt10_ConstructINSt7__cxx1112basic_stringIcSt11char_traitsIcESaIcEEEJRKS5_EEvPT_DpOT0_>:
    43b0:	55                   	push   %rbp
    43b1:	48 89 e5             	mov    %rsp,%rbp
    43b4:	48 83 ec 20          	sub    $0x20,%rsp
    43b8:	48 89 7d f8          	mov    %rdi,-0x8(%rbp)
    43bc:	48 89 75 f0          	mov    %rsi,-0x10(%rbp)
    43c0:	48 8b 45 f8          	mov    -0x8(%rbp),%rax
    43c4:	48 89 45 e8          	mov    %rax,-0x18(%rbp)
    43c8:	48 8b 7d f0          	mov    -0x10(%rbp),%rdi
    43cc:	e8 2f f1 ff ff       	call   3500 <_ZSt7forwardIRKNSt7__cxx1112basic_stringIcSt11char_traitsIcESaIcEEEEOT_RNSt16remove_referenceIS8_E4typeE>
    43d1:	48 8b 7d e8          	mov    -0x18(%rbp),%rdi
    43d5:	48 89 c6             	mov    %rax,%rsi
    43d8:	e8 a3 dc ff ff       	call   2080 <_ZNSt7__cxx1112basic_stringIcSt11char_traitsIcESaIcEEC1ERKS4_@plt>
    43dd:	48 83 c4 20          	add    $0x20,%rsp
    43e1:	5d                   	pop    %rbp
    43e2:	c3                   	ret    
    43e3:	66 2e 0f 1f 84 00 00 	cs nopw 0x0(%rax,%rax,1)
    43ea:	00 00 00 
    43ed:	0f 1f 00             	nopl   (%rax)

00000000000043f0 <_ZNK9__gnu_cxx17__normal_iteratorIPKNSt7__cxx1112basic_stringIcSt11char_traitsIcESaIcEEESt6vectorIS6_SaIS6_EEEdeEv>:
    43f0:	55                   	push   %rbp
    43f1:	48 89 e5             	mov    %rsp,%rbp
    43f4:	48 89 7d f8          	mov    %rdi,-0x8(%rbp)
    43f8:	48 8b 45 f8          	mov    -0x8(%rbp),%rax
    43fc:	48 8b 00             	mov    (%rax),%rax
    43ff:	5d                   	pop    %rbp
    4400:	c3                   	ret    
    4401:	66 2e 0f 1f 84 00 00 	cs nopw 0x0(%rax,%rax,1)
    4408:	00 00 00 
    440b:	0f 1f 44 00 00       	nopl   0x0(%rax,%rax,1)

0000000000004410 <_ZN9__gnu_cxx17__normal_iteratorIPKNSt7__cxx1112basic_stringIcSt11char_traitsIcESaIcEEESt6vectorIS6_SaIS6_EEEppEv>:
    4410:	55                   	push   %rbp
    4411:	48 89 e5             	mov    %rsp,%rbp
    4414:	48 89 7d f8          	mov    %rdi,-0x8(%rbp)
    4418:	48 8b 45 f8          	mov    -0x8(%rbp),%rax
    441c:	48 8b 08             	mov    (%rax),%rcx
    441f:	48 83 c1 20          	add    $0x20,%rcx
    4423:	48 89 08             	mov    %rcx,(%rax)
    4426:	5d                   	pop    %rbp
    4427:	c3                   	ret    
    4428:	0f 1f 84 00 00 00 00 	nopl   0x0(%rax,%rax,1)
    442f:	00 

0000000000004430 <_ZNK9__gnu_cxx17__normal_iteratorIPKNSt7__cxx1112basic_stringIcSt11char_traitsIcESaIcEEESt6vectorIS6_SaIS6_EEE4baseEv>:
    4430:	55                   	push   %rbp
    4431:	48 89 e5             	mov    %rsp,%rbp
    4434:	48 89 7d f8          	mov    %rdi,-0x8(%rbp)
    4438:	48 8b 45 f8          	mov    -0x8(%rbp),%rax
    443c:	5d                   	pop    %rbp
    443d:	c3                   	ret    
    443e:	66 90                	xchg   %ax,%ax

0000000000004440 <_ZN9__gnu_cxx17__normal_iteratorIPKNSt7__cxx1112basic_stringIcSt11char_traitsIcESaIcEEESt6vectorIS6_SaIS6_EEEC2ERKS8_>:
    4440:	55                   	push   %rbp
    4441:	48 89 e5             	mov    %rsp,%rbp
    4444:	48 89 7d f8          	mov    %rdi,-0x8(%rbp)
    4448:	48 89 75 f0          	mov    %rsi,-0x10(%rbp)
    444c:	48 8b 45 f8          	mov    -0x8(%rbp),%rax
    4450:	48 8b 4d f0          	mov    -0x10(%rbp),%rcx
    4454:	48 8b 09             	mov    (%rcx),%rcx
    4457:	48 89 08             	mov    %rcx,(%rax)
    445a:	5d                   	pop    %rbp
    445b:	c3                   	ret    
    445c:	0f 1f 40 00          	nopl   0x0(%rax)

0000000000004460 <_ZNKSt6vectorI6CSVRowSaIS0_EE12_M_check_lenEmPKc>:
    4460:	55                   	push   %rbp
    4461:	48 89 e5             	mov    %rsp,%rbp
    4464:	48 83 ec 60          	sub    $0x60,%rsp
    4468:	48 89 7d f8          	mov    %rdi,-0x8(%rbp)
    446c:	48 89 75 f0          	mov    %rsi,-0x10(%rbp)
    4470:	48 89 55 e8          	mov    %rdx,-0x18(%rbp)
    4474:	48 8b 7d f8          	mov    -0x8(%rbp),%rdi
    4478:	48 89 7d c8          	mov    %rdi,-0x38(%rbp)
    447c:	e8 ef 01 00 00       	call   4670 <_ZNKSt6vectorI6CSVRowSaIS0_EE8max_sizeEv>
    4481:	48 8b 7d c8          	mov    -0x38(%rbp),%rdi
    4485:	48 89 45 d0          	mov    %rax,-0x30(%rbp)
    4489:	e8 12 02 00 00       	call   46a0 <_ZNKSt6vectorI6CSVRowSaIS0_EE4sizeEv>
    448e:	48 89 c1             	mov    %rax,%rcx
    4491:	48 8b 45 d0          	mov    -0x30(%rbp),%rax
    4495:	48 29 c8             	sub    %rcx,%rax
    4498:	48 3b 45 f0          	cmp    -0x10(%rbp),%rax
    449c:	0f 83 09 00 00 00    	jae    44ab <_ZNKSt6vectorI6CSVRowSaIS0_EE12_M_check_lenEmPKc+0x4b>
    44a2:	48 8b 7d e8          	mov    -0x18(%rbp),%rdi
    44a6:	e8 e5 db ff ff       	call   2090 <_ZSt20__throw_length_errorPKc@plt>
    44ab:	48 8b 7d c8          	mov    -0x38(%rbp),%rdi
    44af:	e8 ec 01 00 00       	call   46a0 <_ZNKSt6vectorI6CSVRowSaIS0_EE4sizeEv>
    44b4:	48 8b 7d c8          	mov    -0x38(%rbp),%rdi
    44b8:	48 89 45 b8          	mov    %rax,-0x48(%rbp)
    44bc:	e8 df 01 00 00       	call   46a0 <_ZNKSt6vectorI6CSVRowSaIS0_EE4sizeEv>
    44c1:	48 89 45 d8          	mov    %rax,-0x28(%rbp)
    44c5:	48 8d 7d d8          	lea    -0x28(%rbp),%rdi
    44c9:	48 8d 75 f0          	lea    -0x10(%rbp),%rsi
    44cd:	e8 8e f2 ff ff       	call   3760 <_ZSt3maxImERKT_S2_S2_>
    44d2:	48 8b 7d c8          	mov    -0x38(%rbp),%rdi
    44d6:	48 89 c1             	mov    %rax,%rcx
    44d9:	48 8b 45 b8          	mov    -0x48(%rbp),%rax
    44dd:	48 03 01             	add    (%rcx),%rax
    44e0:	48 89 45 e0          	mov    %rax,-0x20(%rbp)
    44e4:	48 8b 45 e0          	mov    -0x20(%rbp),%rax
    44e8:	48 89 45 c0          	mov    %rax,-0x40(%rbp)
    44ec:	e8 af 01 00 00       	call   46a0 <_ZNKSt6vectorI6CSVRowSaIS0_EE4sizeEv>
    44f1:	48 89 c1             	mov    %rax,%rcx
    44f4:	48 8b 45 c0          	mov    -0x40(%rbp),%rax
    44f8:	48 39 c8             	cmp    %rcx,%rax
    44fb:	0f 82 21 00 00 00    	jb     4522 <_ZNKSt6vectorI6CSVRowSaIS0_EE12_M_check_lenEmPKc+0xc2>
    4501:	48 8b 7d c8          	mov    -0x38(%rbp),%rdi
    4505:	48 8b 45 e0          	mov    -0x20(%rbp),%rax
    4509:	48 89 45 b0          	mov    %rax,-0x50(%rbp)
    450d:	e8 5e 01 00 00       	call   4670 <_ZNKSt6vectorI6CSVRowSaIS0_EE8max_sizeEv>
    4512:	48 89 c1             	mov    %rax,%rcx
    4515:	48 8b 45 b0          	mov    -0x50(%rbp),%rax
    4519:	48 39 c8             	cmp    %rcx,%rax
    451c:	0f 86 12 00 00 00    	jbe    4534 <_ZNKSt6vectorI6CSVRowSaIS0_EE12_M_check_lenEmPKc+0xd4>
    4522:	48 8b 7d c8          	mov    -0x38(%rbp),%rdi
    4526:	e8 45 01 00 00       	call   4670 <_ZNKSt6vectorI6CSVRowSaIS0_EE8max_sizeEv>
    452b:	48 89 45 a8          	mov    %rax,-0x58(%rbp)
    452f:	e9 08 00 00 00       	jmp    453c <_ZNKSt6vectorI6CSVRowSaIS0_EE12_M_check_lenEmPKc+0xdc>
    4534:	48 8b 45 e0          	mov    -0x20(%rbp),%rax
    4538:	48 89 45 a8          	mov    %rax,-0x58(%rbp)
    453c:	48 8b 45 a8          	mov    -0x58(%rbp),%rax
    4540:	48 83 c4 60          	add    $0x60,%rsp
    4544:	5d                   	pop    %rbp
    4545:	c3                   	ret    
    4546:	66 2e 0f 1f 84 00 00 	cs nopw 0x0(%rax,%rax,1)
    454d:	00 00 00 

0000000000004550 <_ZN9__gnu_cxxmiIP6CSVRowSt6vectorIS1_SaIS1_EEEENS_17__normal_iteratorIT_T0_E15difference_typeERKS9_SC_>:
    4550:	55                   	push   %rbp
    4551:	48 89 e5             	mov    %rsp,%rbp
    4554:	48 83 ec 20          	sub    $0x20,%rsp
    4558:	48 89 7d f8          	mov    %rdi,-0x8(%rbp)
    455c:	48 89 75 f0          	mov    %rsi,-0x10(%rbp)
    4560:	48 8b 7d f8          	mov    -0x8(%rbp),%rdi
    4564:	e8 c7 00 00 00       	call   4630 <_ZNK9__gnu_cxx17__normal_iteratorIP6CSVRowSt6vectorIS1_SaIS1_EEE4baseEv>
    4569:	48 8b 00             	mov    (%rax),%rax
    456c:	48 89 45 e8          	mov    %rax,-0x18(%rbp)
    4570:	48 8b 7d f0          	mov    -0x10(%rbp),%rdi
    4574:	e8 b7 00 00 00       	call   4630 <_ZNK9__gnu_cxx17__normal_iteratorIP6CSVRowSt6vectorIS1_SaIS1_EEE4baseEv>
    4579:	48 89 c1             	mov    %rax,%rcx
    457c:	48 8b 45 e8          	mov    -0x18(%rbp),%rax
    4580:	48 8b 09             	mov    (%rcx),%rcx
    4583:	48 29 c8             	sub    %rcx,%rax
    4586:	b9 18 00 00 00       	mov    $0x18,%ecx
    458b:	48 99                	cqto   
    458d:	48 f7 f9             	idiv   %rcx
    4590:	48 83 c4 20          	add    $0x20,%rsp
    4594:	5d                   	pop    %rbp
    4595:	c3                   	ret    
    4596:	66 2e 0f 1f 84 00 00 	cs nopw 0x0(%rax,%rax,1)
    459d:	00 00 00 

00000000000045a0 <_ZNSt12_Vector_baseI6CSVRowSaIS0_EE11_M_allocateEm>:
    45a0:	55                   	push   %rbp
    45a1:	48 89 e5             	mov    %rsp,%rbp
    45a4:	48 83 ec 20          	sub    $0x20,%rsp
    45a8:	48 89 7d f8          	mov    %rdi,-0x8(%rbp)
    45ac:	48 89 75 f0          	mov    %rsi,-0x10(%rbp)
    45b0:	48 8b 45 f8          	mov    -0x8(%rbp),%rax
    45b4:	48 89 45 e8          	mov    %rax,-0x18(%rbp)
    45b8:	48 83 7d f0 00       	cmpq   $0x0,-0x10(%rbp)
    45bd:	0f 84 16 00 00 00    	je     45d9 <_ZNSt12_Vector_baseI6CSVRowSaIS0_EE11_M_allocateEm+0x39>
    45c3:	48 8b 7d e8          	mov    -0x18(%rbp),%rdi
    45c7:	48 8b 75 f0          	mov    -0x10(%rbp),%rsi
    45cb:	e8 b0 01 00 00       	call   4780 <_ZNSt16allocator_traitsISaI6CSVRowEE8allocateERS1_m>
    45d0:	48 89 45 e0          	mov    %rax,-0x20(%rbp)
    45d4:	e9 0b 00 00 00       	jmp    45e4 <_ZNSt12_Vector_baseI6CSVRowSaIS0_EE11_M_allocateEm+0x44>
    45d9:	31 c0                	xor    %eax,%eax
    45db:	48 89 45 e0          	mov    %rax,-0x20(%rbp)
    45df:	e9 00 00 00 00       	jmp    45e4 <_ZNSt12_Vector_baseI6CSVRowSaIS0_EE11_M_allocateEm+0x44>
    45e4:	48 8b 45 e0          	mov    -0x20(%rbp),%rax
    45e8:	48 83 c4 20          	add    $0x20,%rsp
    45ec:	5d                   	pop    %rbp
    45ed:	c3                   	ret    
    45ee:	66 90                	xchg   %ax,%ax

00000000000045f0 <_ZNSt6vectorI6CSVRowSaIS0_EE11_S_relocateEPS0_S3_S3_RS1_>:
    45f0:	55                   	push   %rbp
    45f1:	48 89 e5             	mov    %rsp,%rbp
    45f4:	48 83 ec 30          	sub    $0x30,%rsp
    45f8:	48 89 7d f8          	mov    %rdi,-0x8(%rbp)
    45fc:	48 89 75 f0          	mov    %rsi,-0x10(%rbp)
    4600:	48 89 55 e8          	mov    %rdx,-0x18(%rbp)
    4604:	48 89 4d e0          	mov    %rcx,-0x20(%rbp)
    4608:	48 8b 7d f8          	mov    -0x8(%rbp),%rdi
    460c:	48 8b 75 f0          	mov    -0x10(%rbp),%rsi
    4610:	48 8b 55 e8          	mov    -0x18(%rbp),%rdx
    4614:	48 8b 4d e0          	mov    -0x20(%rbp),%rcx
    4618:	e8 03 02 00 00       	call   4820 <_ZNSt6vectorI6CSVRowSaIS0_EE14_S_do_relocateEPS0_S3_S3_RS1_St17integral_constantIbLb1EE>
    461d:	48 83 c4 30          	add    $0x30,%rsp
    4621:	5d                   	pop    %rbp
    4622:	c3                   	ret    
    4623:	66 2e 0f 1f 84 00 00 	cs nopw 0x0(%rax,%rax,1)
    462a:	00 00 00 
    462d:	0f 1f 00             	nopl   (%rax)

0000000000004630 <_ZNK9__gnu_cxx17__normal_iteratorIP6CSVRowSt6vectorIS1_SaIS1_EEE4baseEv>:
    4630:	55                   	push   %rbp
    4631:	48 89 e5             	mov    %rsp,%rbp
    4634:	48 89 7d f8          	mov    %rdi,-0x8(%rbp)
    4638:	48 8b 45 f8          	mov    -0x8(%rbp),%rax
    463c:	5d                   	pop    %rbp
    463d:	c3                   	ret    
    463e:	66 90                	xchg   %ax,%ax

0000000000004640 <_ZNSt16allocator_traitsISaI6CSVRowEE7destroyIS0_EEvRS1_PT_>:
    4640:	55                   	push   %rbp
    4641:	48 89 e5             	mov    %rsp,%rbp
    4644:	48 83 ec 10          	sub    $0x10,%rsp
    4648:	48 89 7d f8          	mov    %rdi,-0x8(%rbp)
    464c:	48 89 75 f0          	mov    %rsi,-0x10(%rbp)
    4650:	48 8b 7d f8          	mov    -0x8(%rbp),%rdi
    4654:	48 8b 75 f0          	mov    -0x10(%rbp),%rsi
    4658:	e8 63 05 00 00       	call   4bc0 <_ZN9__gnu_cxx13new_allocatorI6CSVRowE7destroyIS1_EEvPT_>
    465d:	48 83 c4 10          	add    $0x10,%rsp
    4661:	5d                   	pop    %rbp
    4662:	c3                   	ret    
    4663:	66 2e 0f 1f 84 00 00 	cs nopw 0x0(%rax,%rax,1)
    466a:	00 00 00 
    466d:	0f 1f 00             	nopl   (%rax)

0000000000004670 <_ZNKSt6vectorI6CSVRowSaIS0_EE8max_sizeEv>:
    4670:	55                   	push   %rbp
    4671:	48 89 e5             	mov    %rsp,%rbp
    4674:	48 83 ec 10          	sub    $0x10,%rsp
    4678:	48 89 7d f8          	mov    %rdi,-0x8(%rbp)
    467c:	48 8b 7d f8          	mov    -0x8(%rbp),%rdi
    4680:	e8 8b 00 00 00       	call   4710 <_ZNKSt12_Vector_baseI6CSVRowSaIS0_EE19_M_get_Tp_allocatorEv>
    4685:	48 89 c7             	mov    %rax,%rdi
    4688:	e8 43 00 00 00       	call   46d0 <_ZNSt6vectorI6CSVRowSaIS0_EE11_S_max_sizeERKS1_>
    468d:	48 83 c4 10          	add    $0x10,%rsp
    4691:	5d                   	pop    %rbp
    4692:	c3                   	ret    
    4693:	66 2e 0f 1f 84 00 00 	cs nopw 0x0(%rax,%rax,1)
    469a:	00 00 00 
    469d:	0f 1f 00             	nopl   (%rax)

00000000000046a0 <_ZNKSt6vectorI6CSVRowSaIS0_EE4sizeEv>:
    46a0:	55                   	push   %rbp
    46a1:	48 89 e5             	mov    %rsp,%rbp
    46a4:	48 89 7d f8          	mov    %rdi,-0x8(%rbp)
    46a8:	48 8b 4d f8          	mov    -0x8(%rbp),%rcx
    46ac:	48 8b 41 08          	mov    0x8(%rcx),%rax
    46b0:	48 8b 09             	mov    (%rcx),%rcx
    46b3:	48 29 c8             	sub    %rcx,%rax
    46b6:	b9 18 00 00 00       	mov    $0x18,%ecx
    46bb:	48 99                	cqto   
    46bd:	48 f7 f9             	idiv   %rcx
    46c0:	5d                   	pop    %rbp
    46c1:	c3                   	ret    
    46c2:	66 2e 0f 1f 84 00 00 	cs nopw 0x0(%rax,%rax,1)
    46c9:	00 00 00 
    46cc:	0f 1f 40 00          	nopl   0x0(%rax)

00000000000046d0 <_ZNSt6vectorI6CSVRowSaIS0_EE11_S_max_sizeERKS1_>:
    46d0:	55                   	push   %rbp
    46d1:	48 89 e5             	mov    %rsp,%rbp
    46d4:	48 83 ec 20          	sub    $0x20,%rsp
    46d8:	48 89 7d f8          	mov    %rdi,-0x8(%rbp)
    46dc:	48 b8 55 55 55 55 55 	movabs $0x555555555555555,%rax
    46e3:	55 55 05 
    46e6:	48 89 45 f0          	mov    %rax,-0x10(%rbp)
    46ea:	48 8b 7d f8          	mov    -0x8(%rbp),%rdi
    46ee:	e8 2d 00 00 00       	call   4720 <_ZNSt16allocator_traitsISaI6CSVRowEE8max_sizeERKS1_>
    46f3:	48 89 45 e8          	mov    %rax,-0x18(%rbp)
    46f7:	48 8d 7d f0          	lea    -0x10(%rbp),%rdi
    46fb:	48 8d 75 e8          	lea    -0x18(%rbp),%rsi
    46ff:	e8 2c f1 ff ff       	call   3830 <_ZSt3minImERKT_S2_S2_>
    4704:	48 8b 00             	mov    (%rax),%rax
    4707:	48 83 c4 20          	add    $0x20,%rsp
    470b:	5d                   	pop    %rbp
    470c:	c3                   	ret    
    470d:	0f 1f 00             	nopl   (%rax)

0000000000004710 <_ZNKSt12_Vector_baseI6CSVRowSaIS0_EE19_M_get_Tp_allocatorEv>:
    4710:	55                   	push   %rbp
    4711:	48 89 e5             	mov    %rsp,%rbp
    4714:	48 89 7d f8          	mov    %rdi,-0x8(%rbp)
    4718:	48 8b 45 f8          	mov    -0x8(%rbp),%rax
    471c:	5d                   	pop    %rbp
    471d:	c3                   	ret    
    471e:	66 90                	xchg   %ax,%ax

0000000000004720 <_ZNSt16allocator_traitsISaI6CSVRowEE8max_sizeERKS1_>:
    4720:	55                   	push   %rbp
    4721:	48 89 e5             	mov    %rsp,%rbp
    4724:	48 83 ec 10          	sub    $0x10,%rsp
    4728:	48 89 7d f8          	mov    %rdi,-0x8(%rbp)
    472c:	48 8b 7d f8          	mov    -0x8(%rbp),%rdi
    4730:	e8 0b 00 00 00       	call   4740 <_ZNK9__gnu_cxx13new_allocatorI6CSVRowE8max_sizeEv>
    4735:	48 83 c4 10          	add    $0x10,%rsp
    4739:	5d                   	pop    %rbp
    473a:	c3                   	ret    
    473b:	0f 1f 44 00 00       	nopl   0x0(%rax,%rax,1)

0000000000004740 <_ZNK9__gnu_cxx13new_allocatorI6CSVRowE8max_sizeEv>:
    4740:	55                   	push   %rbp
    4741:	48 89 e5             	mov    %rsp,%rbp
    4744:	48 83 ec 10          	sub    $0x10,%rsp
    4748:	48 89 7d f8          	mov    %rdi,-0x8(%rbp)
    474c:	48 8b 7d f8          	mov    -0x8(%rbp),%rdi
    4750:	e8 0b 00 00 00       	call   4760 <_ZNK9__gnu_cxx13new_allocatorI6CSVRowE11_M_max_sizeEv>
    4755:	48 83 c4 10          	add    $0x10,%rsp
    4759:	5d                   	pop    %rbp
    475a:	c3                   	ret    
    475b:	0f 1f 44 00 00       	nopl   0x0(%rax,%rax,1)

0000000000004760 <_ZNK9__gnu_cxx13new_allocatorI6CSVRowE11_M_max_sizeEv>:
    4760:	55                   	push   %rbp
    4761:	48 89 e5             	mov    %rsp,%rbp
    4764:	48 89 7d f8          	mov    %rdi,-0x8(%rbp)
    4768:	48 b8 55 55 55 55 55 	movabs $0x555555555555555,%rax
    476f:	55 55 05 
    4772:	5d                   	pop    %rbp
    4773:	c3                   	ret    
    4774:	66 2e 0f 1f 84 00 00 	cs nopw 0x0(%rax,%rax,1)
    477b:	00 00 00 
    477e:	66 90                	xchg   %ax,%ax

0000000000004780 <_ZNSt16allocator_traitsISaI6CSVRowEE8allocateERS1_m>:
    4780:	55                   	push   %rbp
    4781:	48 89 e5             	mov    %rsp,%rbp
    4784:	48 83 ec 10          	sub    $0x10,%rsp
    4788:	48 89 7d f8          	mov    %rdi,-0x8(%rbp)
    478c:	48 89 75 f0          	mov    %rsi,-0x10(%rbp)
    4790:	48 8b 7d f8          	mov    -0x8(%rbp),%rdi
    4794:	48 8b 75 f0          	mov    -0x10(%rbp),%rsi
    4798:	31 c0                	xor    %eax,%eax
    479a:	89 c2                	mov    %eax,%edx
    479c:	e8 0f 00 00 00       	call   47b0 <_ZN9__gnu_cxx13new_allocatorI6CSVRowE8allocateEmPKv>
    47a1:	48 83 c4 10          	add    $0x10,%rsp
    47a5:	5d                   	pop    %rbp
    47a6:	c3                   	ret    
    47a7:	66 0f 1f 84 00 00 00 	nopw   0x0(%rax,%rax,1)
    47ae:	00 00 

00000000000047b0 <_ZN9__gnu_cxx13new_allocatorI6CSVRowE8allocateEmPKv>:
    47b0:	55                   	push   %rbp
    47b1:	48 89 e5             	mov    %rsp,%rbp
    47b4:	48 83 ec 20          	sub    $0x20,%rsp
    47b8:	48 89 7d f8          	mov    %rdi,-0x8(%rbp)
    47bc:	48 89 75 f0          	mov    %rsi,-0x10(%rbp)
    47c0:	48 89 55 e8          	mov    %rdx,-0x18(%rbp)
    47c4:	48 8b 7d f8          	mov    -0x8(%rbp),%rdi
    47c8:	48 8b 45 f0          	mov    -0x10(%rbp),%rax
    47cc:	48 89 45 e0          	mov    %rax,-0x20(%rbp)
    47d0:	e8 8b ff ff ff       	call   4760 <_ZNK9__gnu_cxx13new_allocatorI6CSVRowE11_M_max_sizeEv>
    47d5:	48 89 c1             	mov    %rax,%rcx
    47d8:	48 8b 45 e0          	mov    -0x20(%rbp),%rax
    47dc:	48 39 c8             	cmp    %rcx,%rax
    47df:	0f 86 1e 00 00 00    	jbe    4803 <_ZN9__gnu_cxx13new_allocatorI6CSVRowE8allocateEmPKv+0x53>
    47e5:	48 b8 aa aa aa aa aa 	movabs $0xaaaaaaaaaaaaaaa,%rax
    47ec:	aa aa 0a 
    47ef:	48 39 45 f0          	cmp    %rax,-0x10(%rbp)
    47f3:	0f 86 05 00 00 00    	jbe    47fe <_ZN9__gnu_cxx13new_allocatorI6CSVRowE8allocateEmPKv+0x4e>
    47f9:	e8 d2 d8 ff ff       	call   20d0 <_ZSt28__throw_bad_array_new_lengthv@plt>
    47fe:	e8 5d d8 ff ff       	call   2060 <_ZSt17__throw_bad_allocv@plt>
    4803:	48 6b 7d f0 18       	imul   $0x18,-0x10(%rbp),%rdi
    4808:	e8 13 d9 ff ff       	call   2120 <_Znwm@plt>
    480d:	48 83 c4 20          	add    $0x20,%rsp
    4811:	5d                   	pop    %rbp
    4812:	c3                   	ret    
    4813:	66 2e 0f 1f 84 00 00 	cs nopw 0x0(%rax,%rax,1)
    481a:	00 00 00 
    481d:	0f 1f 00             	nopl   (%rax)

0000000000004820 <_ZNSt6vectorI6CSVRowSaIS0_EE14_S_do_relocateEPS0_S3_S3_RS1_St17integral_constantIbLb1EE>:
    4820:	55                   	push   %rbp
    4821:	48 89 e5             	mov    %rsp,%rbp
    4824:	48 83 ec 30          	sub    $0x30,%rsp
    4828:	48 89 7d f0          	mov    %rdi,-0x10(%rbp)
    482c:	48 89 75 e8          	mov    %rsi,-0x18(%rbp)
    4830:	48 89 55 e0          	mov    %rdx,-0x20(%rbp)
    4834:	48 89 4d d8          	mov    %rcx,-0x28(%rbp)
    4838:	48 8b 7d f0          	mov    -0x10(%rbp),%rdi
    483c:	48 8b 75 e8          	mov    -0x18(%rbp),%rsi
    4840:	48 8b 55 e0          	mov    -0x20(%rbp),%rdx
    4844:	48 8b 4d d8          	mov    -0x28(%rbp),%rcx
    4848:	e8 13 00 00 00       	call   4860 <_ZSt12__relocate_aIP6CSVRowS1_SaIS0_EET0_T_S4_S3_RT1_>
    484d:	48 83 c4 30          	add    $0x30,%rsp
    4851:	5d                   	pop    %rbp
    4852:	c3                   	ret    
    4853:	66 2e 0f 1f 84 00 00 	cs nopw 0x0(%rax,%rax,1)
    485a:	00 00 00 
    485d:	0f 1f 00             	nopl   (%rax)

0000000000004860 <_ZSt12__relocate_aIP6CSVRowS1_SaIS0_EET0_T_S4_S3_RT1_>:
    4860:	55                   	push   %rbp
    4861:	48 89 e5             	mov    %rsp,%rbp
    4864:	48 83 ec 30          	sub    $0x30,%rsp
    4868:	48 89 7d f8          	mov    %rdi,-0x8(%rbp)
    486c:	48 89 75 f0          	mov    %rsi,-0x10(%rbp)
    4870:	48 89 55 e8          	mov    %rdx,-0x18(%rbp)
    4874:	48 89 4d e0          	mov    %rcx,-0x20(%rbp)
    4878:	48 8b 7d f8          	mov    -0x8(%rbp),%rdi
    487c:	e8 bf 00 00 00       	call   4940 <_ZSt12__niter_baseIP6CSVRowET_S2_>
    4881:	48 89 45 d0          	mov    %rax,-0x30(%rbp)
    4885:	48 8b 7d f0          	mov    -0x10(%rbp),%rdi
    4889:	e8 b2 00 00 00       	call   4940 <_ZSt12__niter_baseIP6CSVRowET_S2_>
    488e:	48 89 45 d8          	mov    %rax,-0x28(%rbp)
    4892:	48 8b 7d e8          	mov    -0x18(%rbp),%rdi
    4896:	e8 a5 00 00 00       	call   4940 <_ZSt12__niter_baseIP6CSVRowET_S2_>
    489b:	48 8b 7d d0          	mov    -0x30(%rbp),%rdi
    489f:	48 8b 75 d8          	mov    -0x28(%rbp),%rsi
    48a3:	48 89 c2             	mov    %rax,%rdx
    48a6:	48 8b 4d e0          	mov    -0x20(%rbp),%rcx
    48aa:	e8 11 00 00 00       	call   48c0 <_ZSt14__relocate_a_1IP6CSVRowS1_SaIS0_EET0_T_S4_S3_RT1_>
    48af:	48 83 c4 30          	add    $0x30,%rsp
    48b3:	5d                   	pop    %rbp
    48b4:	c3                   	ret    
    48b5:	66 2e 0f 1f 84 00 00 	cs nopw 0x0(%rax,%rax,1)
    48bc:	00 00 00 
    48bf:	90                   	nop

00000000000048c0 <_ZSt14__relocate_a_1IP6CSVRowS1_SaIS0_EET0_T_S4_S3_RT1_>:
    48c0:	55                   	push   %rbp
    48c1:	48 89 e5             	mov    %rsp,%rbp
    48c4:	48 83 ec 30          	sub    $0x30,%rsp
    48c8:	48 89 7d f8          	mov    %rdi,-0x8(%rbp)
    48cc:	48 89 75 f0          	mov    %rsi,-0x10(%rbp)
    48d0:	48 89 55 e8          	mov    %rdx,-0x18(%rbp)
    48d4:	48 89 4d e0          	mov    %rcx,-0x20(%rbp)
    48d8:	48 8b 45 e8          	mov    -0x18(%rbp),%rax
    48dc:	48 89 45 d8          	mov    %rax,-0x28(%rbp)
    48e0:	48 8b 45 f8          	mov    -0x8(%rbp),%rax
    48e4:	48 3b 45 f0          	cmp    -0x10(%rbp),%rax
    48e8:	0f 84 43 00 00 00    	je     4931 <_ZSt14__relocate_a_1IP6CSVRowS1_SaIS0_EET0_T_S4_S3_RT1_+0x71>
    48ee:	48 8b 7d d8          	mov    -0x28(%rbp),%rdi
    48f2:	e8 f9 e7 ff ff       	call   30f0 <_ZSt11__addressofI6CSVRowEPT_RS1_>
    48f7:	48 89 45 d0          	mov    %rax,-0x30(%rbp)
    48fb:	48 8b 7d f8          	mov    -0x8(%rbp),%rdi
    48ff:	e8 ec e7 ff ff       	call   30f0 <_ZSt11__addressofI6CSVRowEPT_RS1_>
    4904:	48 8b 7d d0          	mov    -0x30(%rbp),%rdi
    4908:	48 89 c6             	mov    %rax,%rsi
    490b:	48 8b 55 e0          	mov    -0x20(%rbp),%rdx
    490f:	e8 3c 00 00 00       	call   4950 <_ZSt19__relocate_object_aI6CSVRowS0_SaIS0_EEvPT_PT0_RT1_>
    4914:	48 8b 45 f8          	mov    -0x8(%rbp),%rax
    4918:	48 83 c0 18          	add    $0x18,%rax
    491c:	48 89 45 f8          	mov    %rax,-0x8(%rbp)
    4920:	48 8b 45 d8          	mov    -0x28(%rbp),%rax
    4924:	48 83 c0 18          	add    $0x18,%rax
    4928:	48 89 45 d8          	mov    %rax,-0x28(%rbp)
    492c:	e9 af ff ff ff       	jmp    48e0 <_ZSt14__relocate_a_1IP6CSVRowS1_SaIS0_EET0_T_S4_S3_RT1_+0x20>
    4931:	48 8b 45 d8          	mov    -0x28(%rbp),%rax
    4935:	48 83 c4 30          	add    $0x30,%rsp
    4939:	5d                   	pop    %rbp
    493a:	c3                   	ret    
    493b:	0f 1f 44 00 00       	nopl   0x0(%rax,%rax,1)

0000000000004940 <_ZSt12__niter_baseIP6CSVRowET_S2_>:
    4940:	55                   	push   %rbp
    4941:	48 89 e5             	mov    %rsp,%rbp
    4944:	48 89 7d f8          	mov    %rdi,-0x8(%rbp)
    4948:	48 8b 45 f8          	mov    -0x8(%rbp),%rax
    494c:	5d                   	pop    %rbp
    494d:	c3                   	ret    
    494e:	66 90                	xchg   %ax,%ax

0000000000004950 <_ZSt19__relocate_object_aI6CSVRowS0_SaIS0_EEvPT_PT0_RT1_>:
    4950:	55                   	push   %rbp
    4951:	48 89 e5             	mov    %rsp,%rbp
    4954:	48 83 ec 30          	sub    $0x30,%rsp
    4958:	48 89 7d f8          	mov    %rdi,-0x8(%rbp)
    495c:	48 89 75 f0          	mov    %rsi,-0x10(%rbp)
    4960:	48 89 55 e8          	mov    %rdx,-0x18(%rbp)
    4964:	48 8b 45 e8          	mov    -0x18(%rbp),%rax
    4968:	48 89 45 d0          	mov    %rax,-0x30(%rbp)
    496c:	48 8b 45 f8          	mov    -0x8(%rbp),%rax
    4970:	48 89 45 d8          	mov    %rax,-0x28(%rbp)
    4974:	48 8b 7d f0          	mov    -0x10(%rbp),%rdi
    4978:	e8 83 00 00 00       	call   4a00 <_ZSt4moveIR6CSVRowEONSt16remove_referenceIT_E4typeEOS3_>
    497d:	48 8b 7d d0          	mov    -0x30(%rbp),%rdi
    4981:	48 8b 75 d8          	mov    -0x28(%rbp),%rsi
    4985:	48 89 c2             	mov    %rax,%rdx
    4988:	e8 23 00 00 00       	call   49b0 <_ZNSt16allocator_traitsISaI6CSVRowEE9constructIS0_JS0_EEEvRS1_PT_DpOT0_>
    498d:	48 8b 45 e8          	mov    -0x18(%rbp),%rax
    4991:	48 89 45 e0          	mov    %rax,-0x20(%rbp)
    4995:	48 8b 7d f0          	mov    -0x10(%rbp),%rdi
    4999:	e8 52 e7 ff ff       	call   30f0 <_ZSt11__addressofI6CSVRowEPT_RS1_>
    499e:	48 8b 7d e0          	mov    -0x20(%rbp),%rdi
    49a2:	48 89 c6             	mov    %rax,%rsi
    49a5:	e8 96 fc ff ff       	call   4640 <_ZNSt16allocator_traitsISaI6CSVRowEE7destroyIS0_EEvRS1_PT_>
    49aa:	48 83 c4 30          	add    $0x30,%rsp
    49ae:	5d                   	pop    %rbp
    49af:	c3                   	ret    

00000000000049b0 <_ZNSt16allocator_traitsISaI6CSVRowEE9constructIS0_JS0_EEEvRS1_PT_DpOT0_>:
    49b0:	55                   	push   %rbp
    49b1:	48 89 e5             	mov    %rsp,%rbp
    49b4:	48 83 ec 30          	sub    $0x30,%rsp
    49b8:	48 89 7d f8          	mov    %rdi,-0x8(%rbp)
    49bc:	48 89 75 f0          	mov    %rsi,-0x10(%rbp)
    49c0:	48 89 55 e8          	mov    %rdx,-0x18(%rbp)
    49c4:	48 8b 45 f8          	mov    -0x8(%rbp),%rax
    49c8:	48 89 45 d8          	mov    %rax,-0x28(%rbp)
    49cc:	48 8b 45 f0          	mov    -0x10(%rbp),%rax
    49d0:	48 89 45 e0          	mov    %rax,-0x20(%rbp)
    49d4:	48 8b 7d e8          	mov    -0x18(%rbp),%rdi
    49d8:	e8 73 00 00 00       	call   4a50 <_ZSt7forwardI6CSVRowEOT_RNSt16remove_referenceIS1_E4typeE>
    49dd:	48 8b 7d d8          	mov    -0x28(%rbp),%rdi
    49e1:	48 8b 75 e0          	mov    -0x20(%rbp),%rsi
    49e5:	48 89 c2             	mov    %rax,%rdx
    49e8:	e8 23 00 00 00       	call   4a10 <_ZN9__gnu_cxx13new_allocatorI6CSVRowE9constructIS1_JS1_EEEvPT_DpOT0_>
    49ed:	48 83 c4 30          	add    $0x30,%rsp
    49f1:	5d                   	pop    %rbp
    49f2:	c3                   	ret    
    49f3:	66 2e 0f 1f 84 00 00 	cs nopw 0x0(%rax,%rax,1)
    49fa:	00 00 00 
    49fd:	0f 1f 00             	nopl   (%rax)

0000000000004a00 <_ZSt4moveIR6CSVRowEONSt16remove_referenceIT_E4typeEOS3_>:
    4a00:	55                   	push   %rbp
    4a01:	48 89 e5             	mov    %rsp,%rbp
    4a04:	48 89 7d f8          	mov    %rdi,-0x8(%rbp)
    4a08:	48 8b 45 f8          	mov    -0x8(%rbp),%rax
    4a0c:	5d                   	pop    %rbp
    4a0d:	c3                   	ret    
    4a0e:	66 90                	xchg   %ax,%ax

0000000000004a10 <_ZN9__gnu_cxx13new_allocatorI6CSVRowE9constructIS1_JS1_EEEvPT_DpOT0_>:
    4a10:	55                   	push   %rbp
    4a11:	48 89 e5             	mov    %rsp,%rbp
    4a14:	48 83 ec 20          	sub    $0x20,%rsp
    4a18:	48 89 7d f8          	mov    %rdi,-0x8(%rbp)
    4a1c:	48 89 75 f0          	mov    %rsi,-0x10(%rbp)
    4a20:	48 89 55 e8          	mov    %rdx,-0x18(%rbp)
    4a24:	48 8b 45 f0          	mov    -0x10(%rbp),%rax
    4a28:	48 89 45 e0          	mov    %rax,-0x20(%rbp)
    4a2c:	48 8b 7d e8          	mov    -0x18(%rbp),%rdi
    4a30:	e8 1b 00 00 00       	call   4a50 <_ZSt7forwardI6CSVRowEOT_RNSt16remove_referenceIS1_E4typeE>
    4a35:	48 8b 7d e0          	mov    -0x20(%rbp),%rdi
    4a39:	48 89 c6             	mov    %rax,%rsi
    4a3c:	e8 1f 00 00 00       	call   4a60 <_ZN6CSVRowC2EOS_>
    4a41:	48 83 c4 20          	add    $0x20,%rsp
    4a45:	5d                   	pop    %rbp
    4a46:	c3                   	ret    
    4a47:	66 0f 1f 84 00 00 00 	nopw   0x0(%rax,%rax,1)
    4a4e:	00 00 

0000000000004a50 <_ZSt7forwardI6CSVRowEOT_RNSt16remove_referenceIS1_E4typeE>:
    4a50:	55                   	push   %rbp
    4a51:	48 89 e5             	mov    %rsp,%rbp
    4a54:	48 89 7d f8          	mov    %rdi,-0x8(%rbp)
    4a58:	48 8b 45 f8          	mov    -0x8(%rbp),%rax
    4a5c:	5d                   	pop    %rbp
    4a5d:	c3                   	ret    
    4a5e:	66 90                	xchg   %ax,%ax

0000000000004a60 <_ZN6CSVRowC2EOS_>:
    4a60:	55                   	push   %rbp
    4a61:	48 89 e5             	mov    %rsp,%rbp
    4a64:	48 83 ec 10          	sub    $0x10,%rsp
    4a68:	48 89 7d f8          	mov    %rdi,-0x8(%rbp)
    4a6c:	48 89 75 f0          	mov    %rsi,-0x10(%rbp)
    4a70:	48 8b 7d f8          	mov    -0x8(%rbp),%rdi
    4a74:	48 8b 75 f0          	mov    -0x10(%rbp),%rsi
    4a78:	e8 13 00 00 00       	call   4a90 <_ZNSt6vectorINSt7__cxx1112basic_stringIcSt11char_traitsIcESaIcEEESaIS5_EEC2EOS7_>
    4a7d:	48 83 c4 10          	add    $0x10,%rsp
    4a81:	5d                   	pop    %rbp
    4a82:	c3                   	ret    
    4a83:	66 2e 0f 1f 84 00 00 	cs nopw 0x0(%rax,%rax,1)
    4a8a:	00 00 00 
    4a8d:	0f 1f 00             	nopl   (%rax)

0000000000004a90 <_ZNSt6vectorINSt7__cxx1112basic_stringIcSt11char_traitsIcESaIcEEESaIS5_EEC2EOS7_>:
    4a90:	55                   	push   %rbp
    4a91:	48 89 e5             	mov    %rsp,%rbp
    4a94:	48 83 ec 10          	sub    $0x10,%rsp
    4a98:	48 89 7d f8          	mov    %rdi,-0x8(%rbp)
    4a9c:	48 89 75 f0          	mov    %rsi,-0x10(%rbp)
    4aa0:	48 8b 7d f8          	mov    -0x8(%rbp),%rdi
    4aa4:	48 8b 75 f0          	mov    -0x10(%rbp),%rsi
    4aa8:	e8 13 00 00 00       	call   4ac0 <_ZNSt12_Vector_baseINSt7__cxx1112basic_stringIcSt11char_traitsIcESaIcEEESaIS5_EEC2EOS7_>
    4aad:	48 83 c4 10          	add    $0x10,%rsp
    4ab1:	5d                   	pop    %rbp
    4ab2:	c3                   	ret    
    4ab3:	66 2e 0f 1f 84 00 00 	cs nopw 0x0(%rax,%rax,1)
    4aba:	00 00 00 
    4abd:	0f 1f 00             	nopl   (%rax)

0000000000004ac0 <_ZNSt12_Vector_baseINSt7__cxx1112basic_stringIcSt11char_traitsIcESaIcEEESaIS5_EEC2EOS7_>:
    4ac0:	55                   	push   %rbp
    4ac1:	48 89 e5             	mov    %rsp,%rbp
    4ac4:	48 83 ec 10          	sub    $0x10,%rsp
    4ac8:	48 89 7d f8          	mov    %rdi,-0x8(%rbp)
    4acc:	48 89 75 f0          	mov    %rsi,-0x10(%rbp)
    4ad0:	48 8b 7d f8          	mov    -0x8(%rbp),%rdi
    4ad4:	48 8b 75 f0          	mov    -0x10(%rbp),%rsi
    4ad8:	e8 13 00 00 00       	call   4af0 <_ZNSt12_Vector_baseINSt7__cxx1112basic_stringIcSt11char_traitsIcESaIcEEESaIS5_EE12_Vector_implC2EOS8_>
    4add:	48 83 c4 10          	add    $0x10,%rsp
    4ae1:	5d                   	pop    %rbp
    4ae2:	c3                   	ret    
    4ae3:	66 2e 0f 1f 84 00 00 	cs nopw 0x0(%rax,%rax,1)
    4aea:	00 00 00 
    4aed:	0f 1f 00             	nopl   (%rax)

0000000000004af0 <_ZNSt12_Vector_baseINSt7__cxx1112basic_stringIcSt11char_traitsIcESaIcEEESaIS5_EE12_Vector_implC2EOS8_>:
    4af0:	55                   	push   %rbp
    4af1:	48 89 e5             	mov    %rsp,%rbp
    4af4:	48 83 ec 30          	sub    $0x30,%rsp
    4af8:	48 89 7d f8          	mov    %rdi,-0x8(%rbp)
    4afc:	48 89 75 f0          	mov    %rsi,-0x10(%rbp)
    4b00:	48 8b 45 f8          	mov    -0x8(%rbp),%rax
    4b04:	48 89 45 e0          	mov    %rax,-0x20(%rbp)
    4b08:	48 89 45 d8          	mov    %rax,-0x28(%rbp)
    4b0c:	48 8b 7d f0          	mov    -0x10(%rbp),%rdi
    4b10:	e8 3b 00 00 00       	call   4b50 <_ZSt4moveIRNSt12_Vector_baseINSt7__cxx1112basic_stringIcSt11char_traitsIcESaIcEEESaIS6_EE12_Vector_implEEONSt16remove_referenceIT_E4typeEOSC_>
    4b15:	48 8b 7d d8          	mov    -0x28(%rbp),%rdi
    4b19:	48 89 c6             	mov    %rax,%rsi
    4b1c:	e8 4f f6 ff ff       	call   4170 <_ZNSaINSt7__cxx1112basic_stringIcSt11char_traitsIcESaIcEEEEC2ERKS5_>
    4b21:	48 8b 45 e0          	mov    -0x20(%rbp),%rax
    4b25:	48 89 45 e8          	mov    %rax,-0x18(%rbp)
    4b29:	48 8b 7d f0          	mov    -0x10(%rbp),%rdi
    4b2d:	e8 1e 00 00 00       	call   4b50 <_ZSt4moveIRNSt12_Vector_baseINSt7__cxx1112basic_stringIcSt11char_traitsIcESaIcEEESaIS6_EE12_Vector_implEEONSt16remove_referenceIT_E4typeEOSC_>
    4b32:	48 8b 7d e8          	mov    -0x18(%rbp),%rdi
    4b36:	48 89 c6             	mov    %rax,%rsi
    4b39:	e8 22 00 00 00       	call   4b60 <_ZNSt12_Vector_baseINSt7__cxx1112basic_stringIcSt11char_traitsIcESaIcEEESaIS5_EE17_Vector_impl_dataC2EOS8_>
    4b3e:	48 83 c4 30          	add    $0x30,%rsp
    4b42:	5d                   	pop    %rbp
    4b43:	c3                   	ret    
    4b44:	66 2e 0f 1f 84 00 00 	cs nopw 0x0(%rax,%rax,1)
    4b4b:	00 00 00 
    4b4e:	66 90                	xchg   %ax,%ax

0000000000004b50 <_ZSt4moveIRNSt12_Vector_baseINSt7__cxx1112basic_stringIcSt11char_traitsIcESaIcEEESaIS6_EE12_Vector_implEEONSt16remove_referenceIT_E4typeEOSC_>:
    4b50:	55                   	push   %rbp
    4b51:	48 89 e5             	mov    %rsp,%rbp
    4b54:	48 89 7d f8          	mov    %rdi,-0x8(%rbp)
    4b58:	48 8b 45 f8          	mov    -0x8(%rbp),%rax
    4b5c:	5d                   	pop    %rbp
    4b5d:	c3                   	ret    
    4b5e:	66 90                	xchg   %ax,%ax

0000000000004b60 <_ZNSt12_Vector_baseINSt7__cxx1112basic_stringIcSt11char_traitsIcESaIcEEESaIS5_EE17_Vector_impl_dataC2EOS8_>:
    4b60:	55                   	push   %rbp
    4b61:	48 89 e5             	mov    %rsp,%rbp
    4b64:	48 89 7d f8          	mov    %rdi,-0x8(%rbp)
    4b68:	48 89 75 f0          	mov    %rsi,-0x10(%rbp)
    4b6c:	48 8b 45 f8          	mov    -0x8(%rbp),%rax
    4b70:	48 8b 4d f0          	mov    -0x10(%rbp),%rcx
    4b74:	48 8b 09             	mov    (%rcx),%rcx
    4b77:	48 89 08             	mov    %rcx,(%rax)
    4b7a:	48 8b 4d f0          	mov    -0x10(%rbp),%rcx
    4b7e:	48 8b 49 08          	mov    0x8(%rcx),%rcx
    4b82:	48 89 48 08          	mov    %rcx,0x8(%rax)
    4b86:	48 8b 4d f0          	mov    -0x10(%rbp),%rcx
    4b8a:	48 8b 49 10          	mov    0x10(%rcx),%rcx
    4b8e:	48 89 48 10          	mov    %rcx,0x10(%rax)
    4b92:	48 8b 45 f0          	mov    -0x10(%rbp),%rax
    4b96:	48 c7 40 10 00 00 00 	movq   $0x0,0x10(%rax)
    4b9d:	00 
    4b9e:	48 8b 45 f0          	mov    -0x10(%rbp),%rax
    4ba2:	48 c7 40 08 00 00 00 	movq   $0x0,0x8(%rax)
    4ba9:	00 
    4baa:	48 8b 45 f0          	mov    -0x10(%rbp),%rax
    4bae:	48 c7 00 00 00 00 00 	movq   $0x0,(%rax)
    4bb5:	5d                   	pop    %rbp
    4bb6:	c3                   	ret    
    4bb7:	66 0f 1f 84 00 00 00 	nopw   0x0(%rax,%rax,1)
    4bbe:	00 00 

0000000000004bc0 <_ZN9__gnu_cxx13new_allocatorI6CSVRowE7destroyIS1_EEvPT_>:
    4bc0:	55                   	push   %rbp
    4bc1:	48 89 e5             	mov    %rsp,%rbp
    4bc4:	48 83 ec 10          	sub    $0x10,%rsp
    4bc8:	48 89 7d f8          	mov    %rdi,-0x8(%rbp)
    4bcc:	48 89 75 f0          	mov    %rsi,-0x10(%rbp)
    4bd0:	48 8b 7d f0          	mov    -0x10(%rbp),%rdi
    4bd4:	e8 37 dd ff ff       	call   2910 <_ZN6CSVRowD2Ev>
    4bd9:	48 83 c4 10          	add    $0x10,%rsp
    4bdd:	5d                   	pop    %rbp
    4bde:	c3                   	ret    
    4bdf:	90                   	nop

0000000000004be0 <_ZN9__gnu_cxx17__normal_iteratorIP6CSVRowSt6vectorIS1_SaIS1_EEEC2ERKS2_>:
    4be0:	55                   	push   %rbp
    4be1:	48 89 e5             	mov    %rsp,%rbp
    4be4:	48 89 7d f8          	mov    %rdi,-0x8(%rbp)
    4be8:	48 89 75 f0          	mov    %rsi,-0x10(%rbp)
    4bec:	48 8b 45 f8          	mov    -0x8(%rbp),%rax
    4bf0:	48 8b 4d f0          	mov    -0x10(%rbp),%rcx
    4bf4:	48 8b 09             	mov    (%rcx),%rcx
    4bf7:	48 89 08             	mov    %rcx,(%rax)
    4bfa:	5d                   	pop    %rbp
    4bfb:	c3                   	ret    
    4bfc:	0f 1f 40 00          	nopl   0x0(%rax)

0000000000004c00 <_ZN9__gnu_cxx17__normal_iteratorIPNSt7__cxx1112basic_stringIcSt11char_traitsIcESaIcEEESt6vectorIS6_SaIS6_EEEC2ERKS7_>:
    4c00:	55                   	push   %rbp
    4c01:	48 89 e5             	mov    %rsp,%rbp
    4c04:	48 89 7d f8          	mov    %rdi,-0x8(%rbp)
    4c08:	48 89 75 f0          	mov    %rsi,-0x10(%rbp)
    4c0c:	48 8b 45 f8          	mov    -0x8(%rbp),%rax
    4c10:	48 8b 4d f0          	mov    -0x10(%rbp),%rcx
    4c14:	48 8b 09             	mov    (%rcx),%rcx
    4c17:	48 89 08             	mov    %rcx,(%rax)
    4c1a:	5d                   	pop    %rbp
    4c1b:	c3                   	ret    

Disassembly of section .fini:

0000000000004c1c <_fini>:
    4c1c:	f3 0f 1e fa          	endbr64 
    4c20:	48 83 ec 08          	sub    $0x8,%rsp
    4c24:	48 83 c4 08          	add    $0x8,%rsp
    4c28:	c3                   	ret    
